

Microchip MPLAB XC8 Assembler V2.46 build 20240104201356 
                                                                                               Tue Oct 01 19:48:14 2024

Microchip MPLAB XC8 C Compiler v2.46 (Free license) build 20240104201356 Og1 
     1                           	processor	18F46K20
     2                           	fnconf	rparam,??,?,0
     3                           	pagewidth 120
     4                           	opt	flic
     5                           	psect	idataCOMRAM,global,class=CODE,delta=1,noexec
     6                           	psect	smallconst,global,reloc=2,class=SMALLCONST,delta=1,noexec
     7                           	psect	nvCOMRAM,global,class=COMRAM,space=1,delta=1,lowdata,noexec
     8                           	psect	cinit,global,reloc=2,class=CODE,delta=1
     9                           	psect	bssCOMRAM,global,class=COMRAM,space=1,delta=1,lowdata,noexec
    10                           	psect	dataCOMRAM,global,class=COMRAM,space=1,delta=1,lowdata,noexec
    11                           	psect	cstackCOMRAM,global,class=COMRAM,space=1,delta=1,lowdata,noexec
    12                           	psect	text0,global,reloc=2,class=CODE,delta=1
    13                           	psect	text1,global,reloc=2,class=CODE,delta=1
    14                           	psect	text2,global,reloc=2,class=CODE,delta=1
    15                           	psect	text3,global,reloc=2,class=CODE,delta=1
    16                           	psect	text4,global,reloc=2,class=CODE,delta=1
    17                           	psect	text5,global,reloc=2,class=CODE,delta=1
    18                           	psect	text6,global,reloc=2,class=CODE,delta=1
    19                           	psect	text7,global,reloc=2,class=CODE,delta=1
    20                           	psect	text8,global,reloc=2,class=CODE,delta=1
    21                           	psect	text9,global,reloc=2,class=CODE,delta=1
    22                           	psect	text10,global,reloc=2,class=CODE,delta=1
    23                           	psect	intsave_regs,global,class=BIGRAM,space=1,delta=1,noexec
    24                           	psect	rparam,global,class=COMRAM,space=1,delta=1,noexec
    25                           	psect	config,global,abs,ovrld,class=CONFIG,space=4,delta=1,noexec
    26   000000                     
    27                           ; Generated 12/10/2023 GMT
    28                           ; 
    29                           ; Copyright © 2023, Microchip Technology Inc. and its subsidiaries ("Microchip")
    30                           ; All rights reserved.
    31                           ; 
    32                           ; This software is developed by Microchip Technology Inc. and its subsidiaries ("Microch
      +                          ip").
    33                           ; 
    34                           ; Redistribution and use in source and binary forms, with or without modification, are
    35                           ; permitted provided that the following conditions are met:
    36                           ; 
    37                           ;     1. Redistributions of source code must retain the above copyright notice, this lis
      +                          t of
    38                           ;        conditions and the following disclaimer.
    39                           ; 
    40                           ;     2. Redistributions in binary form must reproduce the above copyright notice, this 
      +                          list
    41                           ;        of conditions and the following disclaimer in the documentation and/or other
    42                           ;        materials provided with the distribution. Publication is not required when
    43                           ;        this file is used in an embedded application.
    44                           ; 
    45                           ;     3. Microchip's name may not be used to endorse or promote products derived from th
      +                          is
    46                           ;        software without specific prior written permission.
    47                           ; 
    48                           ; THIS SOFTWARE IS PROVIDED BY MICROCHIP "AS IS" AND ANY EXPRESS OR IMPLIED WARRANTIES,
    49                           ; INCLUDING, BUT NOT LIMITED TO, THE IMPLIED WARRANTIES OF MERCHANTABILITY AND FITNESS F
      +                          OR
    50                           ; PURPOSE ARE DISCLAIMED.  IN NO EVENT SHALL MICROCHIP BE LIABLE FOR ANY DIRECT, INDIREC
      +                          T,
    51                           ; INCIDENTAL, SPECIAL, EXEMPLARY, OR CONSEQUENTIAL DAMAGES (INCLUDING BUT NOT LIMITED TO
    52                           ; PROCUREMENT OF SUBSTITUTE GOODS OR SERVICES; LOSS OF USE, DATA OR PROFITS; OR BUSINESS
    53                           ; INTERRUPTION) HOWSOEVER CAUSED AND ON ANY THEORY OF LIABILITY, WHETHER IN CONTRACT, ST
      +                          RICT
    54                           ; LIABILITY, OR TORT (INCLUDING NEGLIGENCE OR OTHERWISE) ARISING IN ANY WAY OUT OF THE U
      +                          SE OF
    55                           ; THIS SOFTWARE, EVEN IF ADVISED OF THE POSSIBILITY OF SUCH DAMAGE.
    56                           ; 
    57                           ; 
    58                           ; Code-generator required, PIC18F46K20 Definitions
    59                           ; 
    60                           ; SFR Addresses
    61   000000                     
    62                           	psect	idataCOMRAM
    63   001614                     __pidataCOMRAM:
    64                           	callstack 0
    65                           
    66                           ;initializer for _LAT_REG
    67   001614  89                 	db	137
    68   001615  0F                 	db	15
    69   001616  8A                 	db	138
    70   001617  0F                 	db	15
    71   001618  8B                 	db	139
    72   001619  0F                 	db	15
    73   00161A  8C                 	db	140
    74   00161B  0F                 	db	15
    75   00161C  8D                 	db	141
    76   00161D  0F                 	db	15
    77                           
    78                           ;initializer for _PORT_REG
    79   00161E  80                 	db	128
    80   00161F  0F                 	db	15
    81   001620  81                 	db	129
    82   001621  0F                 	db	15
    83   001622  82                 	db	130
    84   001623  0F                 	db	15
    85   001624  83                 	db	131
    86   001625  0F                 	db	15
    87   001626  84                 	db	132
    88   001627  0F                 	db	15
    89                           
    90                           ;initializer for _TRIS_REG
    91   001628  92                 	db	146
    92   001629  0F                 	db	15
    93   00162A  93                 	db	147
    94   00162B  0F                 	db	15
    95   00162C  94                 	db	148
    96   00162D  0F                 	db	15
    97   00162E  95                 	db	149
    98   00162F  0F                 	db	15
    99   001630  96                 	db	150
   100   001631  0F                 	db	15
   101                           
   102                           ;initializer for _keypad1
   103   001632  02                 	db	2
   104   001633  0A                 	db	10
   105   001634  12                 	db	18
   106   001635  1A                 	db	26
   107   001636  62                 	db	98
   108   001637  6A                 	db	106
   109   001638  72                 	db	114
   110   001639  7A                 	db	122
   111                           
   112                           ;initializer for _led1
   113   00163A  03                 	db	3
   114                           
   115                           	psect	smallconst
   116   001000                     __psmallconst:
   117                           	callstack 0
   118   001000  00                 	db	0
   119   001001                     _KEYPAD_VALUES:
   120                           	callstack 0
   121   001001  37                 	db	55
   122   001002  38                 	db	56
   123   001003  39                 	db	57
   124   001004  2F                 	db	47
   125   001005  34                 	db	52
   126   001006  35                 	db	53
   127   001007  36                 	db	54
   128   001008  2A                 	db	42
   129   001009  31                 	db	49
   130   00100A  32                 	db	50
   131   00100B  33                 	db	51
   132   00100C  2D                 	db	45
   133   00100D  43                 	db	67
   134   00100E  30                 	db	48
   135   00100F  3D                 	db	61
   136   001010  2B                 	db	43
   137   001011                     __end_of_KEYPAD_VALUES:
   138                           	callstack 0
   139   001011  00                 	db	0	; dummy byte at the end
   140   000000                     
   141                           	psect	nvCOMRAM
   142   000043                     __pnvCOMRAM:
   143                           	callstack 0
   144   000043                     _Ret:
   145                           	callstack 0
   146   000043                     	ds	1
   147   000000                     _PORTA	set	3968
   148   000000                     _TRISA	set	3986
   149   000000                     _TRISE	set	3990
   150   000000                     _TRISD	set	3989
   151   000000                     _TRISC	set	3988
   152   000000                     _TRISB	set	3987
   153   000000                     _LATA	set	3977
   154   000000                     _PORTE	set	3972
   155   000000                     _PORTD	set	3971
   156   000000                     _PORTC	set	3970
   157   000000                     _PORTB	set	3969
   158   000000                     _LATE	set	3981
   159   000000                     _LATD	set	3980
   160   000000                     _LATC	set	3979
   161   000000                     _LATB	set	3978
   162                           
   163                           ; #config settings
   164                           
   165                           	psect	cinit
   166   0015A8                     __pcinit:
   167                           	callstack 0
   168   0015A8                     start_initialization:
   169                           	callstack 0
   170   0015A8                     __initialization:
   171                           	callstack 0
   172                           
   173                           ; Initialize objects allocated to COMRAM (39 bytes)
   174                           ; load TBLPTR registers with __pidataCOMRAM
   175   0015A8  0E14               	movlw	low __pidataCOMRAM
   176   0015AA  6EF6               	movwf	tblptrl,c
   177   0015AC  0E16               	movlw	high __pidataCOMRAM
   178   0015AE  6EF7               	movwf	tblptrh,c
   179   0015B0  0E00               	movlw	low (__pidataCOMRAM shr (0+16))
   180   0015B2  6EF8               	movwf	tblptru,c
   181   0015B4  EE00  F001         	lfsr	0,__pdataCOMRAM
   182   0015B8  EE10 F027          	lfsr	1,39
   183   0015BC                     copy_data0:
   184   0015BC  0009               	tblrd		*+
   185   0015BE  CFF5 FFEE          	movff	tablat,postinc0
   186   0015C2  50E5               	movf	postdec1,w,c
   187   0015C4  50E1               	movf	fsr1l,w,c
   188   0015C6  E1FA               	bnz	copy_data0
   189                           
   190                           ; Clear objects allocated to COMRAM (8 bytes)
   191   0015C8  EE00  F03B         	lfsr	0,__pbssCOMRAM
   192   0015CC  0E08               	movlw	8
   193   0015CE                     clear_0:
   194   0015CE  6AEE               	clrf	postinc0,c
   195   0015D0  06E8               	decf	wreg,f,c
   196   0015D2  E1FD               	bnz	clear_0
   197   0015D4                     end_of_initialization:
   198                           	callstack 0
   199   0015D4                     __end_of__initialization:
   200                           	callstack 0
   201   0015D4  0E00               	movlw	low (__Lmediumconst shr (0+16))
   202   0015D6  6EF8               	movwf	tblptru,c
   203   0015D8  0100               	movlb	0
   204   0015DA  EFEF  F00A         	goto	_main	;jump to C main() function
   205                           
   206                           	psect	bssCOMRAM
   207   00003B                     __pbssCOMRAM:
   208                           	callstack 0
   209   00003B                     RELAY_TURN_OFF@F3158:
   210                           	callstack 0
   211   00003B                     	ds	1
   212   00003C                     RELAY_TURN_ON@F3152:
   213                           	callstack 0
   214   00003C                     	ds	1
   215   00003D                     RELAY_INITIALIZE@F3146:
   216                           	callstack 0
   217   00003D                     	ds	1
   218   00003E                     LED_TOGGLE@F3163:
   219                           	callstack 0
   220   00003E                     	ds	1
   221   00003F                     LED_Turn_OFF@F3158:
   222                           	callstack 0
   223   00003F                     	ds	1
   224   000040                     LED_Turn_ON@F3153:
   225                           	callstack 0
   226   000040                     	ds	1
   227   000041                     LED_INITIALIZE@F3148:
   228                           	callstack 0
   229   000041                     	ds	1
   230   000042                     _val:
   231                           	callstack 0
   232   000042                     	ds	1
   233                           
   234                           	psect	dataCOMRAM
   235   000001                     __pdataCOMRAM:
   236                           	callstack 0
   237   000001                     _LAT_REG:
   238                           	callstack 0
   239   000001                     	ds	10
   240   00000B                     _PORT_REG:
   241                           	callstack 0
   242   00000B                     	ds	10
   243   000015                     _TRIS_REG:
   244                           	callstack 0
   245   000015                     	ds	10
   246   00001F                     _keypad1:
   247                           	callstack 0
   248   00001F                     	ds	8
   249   000027                     _led1:
   250                           	callstack 0
   251   000027                     	ds	1
   252                           
   253                           	psect	cstackCOMRAM
   254   000028                     __pcstackCOMRAM:
   255                           	callstack 0
   256   000028                     GPIO_PIN_DIRECTION_INITIALIZE@_PIN_CONFIG:
   257                           	callstack 0
   258   000028                     GPIO_PIN_WRITE_LOGIC@_PIN_CONFIG:
   259                           	callstack 0
   260   000028                     GPIO_PIN_READ_LOGIC@_PIN_CONFIG:
   261                           	callstack 0
   262                           
   263                           ; 1 bytes @ 0x0
   264   000028                     	ds	1
   265   000029                     ??_GPIO_PIN_DIRECTION_INITIALIZE:
   266   000029                     GPIO_PIN_WRITE_LOGIC@LOGIC:
   267                           	callstack 0
   268   000029                     GPIO_PIN_READ_LOGIC@LOGIC:
   269                           	callstack 0
   270                           
   271                           ; 1 bytes @ 0x1
   272   000029                     	ds	1
   273   00002A                     ??_GPIO_PIN_WRITE_LOGIC:
   274   00002A                     ??_GPIO_PIN_READ_LOGIC:
   275                           
   276                           ; 1 bytes @ 0x2
   277   00002A                     	ds	4
   278   00002E                     GPIO_PIN_DIRECTION_INITIALIZE@Retval:
   279                           	callstack 0
   280   00002E                     GPIO_PIN_READ_LOGIC@Retval:
   281                           	callstack 0
   282                           
   283                           ; 1 bytes @ 0x6
   284   00002E                     	ds	1
   285   00002F                     GPIO_PIN_WRITE_LOGIC@Retval:
   286                           	callstack 0
   287                           
   288                           ; 1 bytes @ 0x7
   289   00002F                     	ds	1
   290   000030                     LED_Turn_ON@led:
   291                           	callstack 0
   292   000030                     GPIO_PIN_INITIALIZE@_PIN_CONFIG:
   293                           	callstack 0
   294   000030                     KEYPAD_GET_VALUE@keypad:
   295                           	callstack 0
   296                           
   297                           ; 1 bytes @ 0x8
   298   000030                     	ds	1
   299   000031                     ??_GPIO_PIN_INITIALIZE:
   300   000031                     ??_LED_Turn_ON:
   301   000031                     KEYPAD_GET_VALUE@value:
   302                           	callstack 0
   303                           
   304                           ; 1 bytes @ 0x9
   305   000031                     	ds	1
   306   000032                     ??_KEYPAD_GET_VALUE:
   307   000032                     LED_Turn_ON@Retval:
   308                           	callstack 0
   309   000032                     GPIO_PIN_INITIALIZE@Retval:
   310                           	callstack 0
   311                           
   312                           ; 1 bytes @ 0xA
   313   000032                     	ds	1
   314   000033                     LED_INITIALIZE@led:
   315                           	callstack 0
   316   000033                     LED_Turn_ON@PIN_OBJ:
   317                           	callstack 0
   318   000033                     KEYPAD_INITIALIZE@keypad:
   319                           	callstack 0
   320   000033                     KEYPAD_GET_VALUE@Retval:
   321                           	callstack 0
   322                           
   323                           ; 1 bytes @ 0xB
   324   000033                     	ds	1
   325   000034                     ??_LED_INITIALIZE:
   326   000034                     KEYPAD_INITIALIZE@Retval:
   327                           	callstack 0
   328   000034                     KEYPAD_GET_VALUE@COLUMN_STATE:
   329                           	callstack 0
   330                           
   331                           ; 1 bytes @ 0xC
   332   000034                     	ds	1
   333   000035                     LED_INITIALIZE@Retval:
   334                           	callstack 0
   335   000035                     KEYPAD_INITIALIZE@r:
   336                           	callstack 0
   337   000035                     KEYPAD_GET_VALUE@r2:
   338                           	callstack 0
   339                           
   340                           ; 2 bytes @ 0xD
   341   000035                     	ds	1
   342   000036                     LED_INITIALIZE@PIN_OBJ:
   343                           	callstack 0
   344                           
   345                           ; 1 bytes @ 0xE
   346   000036                     	ds	1
   347   000037                     KEYPAD_INITIALIZE@c:
   348                           	callstack 0
   349   000037                     KEYPAD_GET_VALUE@r1:
   350                           	callstack 0
   351                           
   352                           ; 2 bytes @ 0xF
   353   000037                     	ds	2
   354   000039                     KEYPAD_GET_VALUE@c1:
   355                           	callstack 0
   356                           
   357                           ; 2 bytes @ 0x11
   358   000039                     	ds	2
   359   00003B                     
   360                           ; 1 bytes @ 0x13
   361 ;;
   362 ;;Main: autosize = 0, tempsize = 0, incstack = 0, save=0
   363 ;;
   364 ;; *************** function _main *****************
   365 ;; Defined at:
   366 ;;		line 13 in file "Drivers_Main.c"
   367 ;; Parameters:    Size  Location     Type
   368 ;;		None
   369 ;; Auto vars:     Size  Location     Type
   370 ;;		None
   371 ;; Return value:  Size  Location     Type
   372 ;;                  2  264[None  ] int 
   373 ;; Registers used:
   374 ;;		wreg, fsr1l, fsr1h, fsr2l, fsr2h, status,2, status,0, tblptrl, tblptrh, tblptru, prodl, prodh, cstack
   375 ;; Tracked objects:
   376 ;;		On entry : 0/0
   377 ;;		On exit  : 0/0
   378 ;;		Unchanged: 0/0
   379 ;; Data sizes:     COMRAM   BANK0   BANK1   BANK2   BANK3   BANK4   BANK5   BANK6   BANK7   BANK8   BANK9  BANK10  BANK1
      +1  BANK12  BANK13  BANK14  BANK15
   380 ;;      Params:         0       0       0       0       0       0       0       0       0       0       0       0       
      +0       0       0       0       0
   381 ;;      Locals:         0       0       0       0       0       0       0       0       0       0       0       0       
      +0       0       0       0       0
   382 ;;      Temps:          0       0       0       0       0       0       0       0       0       0       0       0       
      +0       0       0       0       0
   383 ;;      Totals:         0       0       0       0       0       0       0       0       0       0       0       0       
      +0       0       0       0       0
   384 ;;Total ram usage:        0 bytes
   385 ;; Hardware stack levels required when called: 5
   386 ;; This function calls:
   387 ;;		_Application_intialize
   388 ;;		_KEYPAD_GET_VALUE
   389 ;;		_LED_Turn_ON
   390 ;; This function is called by:
   391 ;;		Startup code after reset
   392 ;; This function uses a non-reentrant model
   393 ;;
   394                           
   395                           	psect	text0
   396   0015DE                     __ptext0:
   397                           	callstack 0
   398   0015DE                     _main:
   399                           	callstack 26
   400   0015DE                     
   401                           ;Drivers_Main.c: 14:     Application_intialize();
   402   0015DE  EC27  F00B         	call	_Application_intialize	;wreg free
   403   0015E2                     l1937:
   404                           
   405                           ;Drivers_Main.c: 16:         Ret = KEYPAD_GET_VALUE(&keypad1 , &val);
   406   0015E2  0E1F               	movlw	low _keypad1
   407   0015E4  6E30               	movwf	KEYPAD_GET_VALUE@keypad^0,c
   408   0015E6  0E42               	movlw	low _val
   409   0015E8  6E31               	movwf	KEYPAD_GET_VALUE@value^0,c
   410   0015EA  EC1A  F009         	call	_KEYPAD_GET_VALUE	;wreg free
   411   0015EE  6E43               	movwf	_Ret^0,c
   412   0015F0                     
   413                           ;Drivers_Main.c: 18:         if(val == 5){
   414   0015F0  0E05               	movlw	5
   415   0015F2  1842               	xorwf	_val^0,w,c
   416   0015F4  A4D8               	btfss	status,2,c
   417   0015F6  EFFF  F00A         	goto	u1241
   418   0015FA  EF01  F00B         	goto	u1240
   419   0015FE                     u1241:
   420   0015FE  EFF1  F00A         	goto	l1937
   421   001602                     u1240:
   422   001602                     
   423                           ;Drivers_Main.c: 19:             Ret = LED_Turn_ON(&led1);
   424   001602  0E27               	movlw	low _led1
   425   001604  6E30               	movwf	LED_Turn_ON@led^0,c
   426   001606  EC31  F00A         	call	_LED_Turn_ON	;wreg free
   427   00160A  6E43               	movwf	_Ret^0,c
   428   00160C  EFF1  F00A         	goto	l1937
   429   001610  EF02  F000         	goto	start
   430   001614                     __end_of_main:
   431                           	callstack 0
   432                           
   433 ;; *************** function _LED_Turn_ON *****************
   434 ;; Defined at:
   435 ;;		line 44 in file "ECUAL/LED/ECU_LED.c"
   436 ;; Parameters:    Size  Location     Type
   437 ;;  led             1    8[COMRAM] PTR const struct .
   438 ;;		 -> led1(1), 
   439 ;; Auto vars:     Size  Location     Type
   440 ;;  PIN_OBJ         1   11[COMRAM] struct .
   441 ;;  Retval          1   10[COMRAM] enum E3063
   442 ;; Return value:  Size  Location     Type
   443 ;;                  1    wreg      enum E3063
   444 ;; Registers used:
   445 ;;		wreg, fsr2l, fsr2h, status,2, status,0, prodl, prodh, cstack
   446 ;; Tracked objects:
   447 ;;		On entry : 0/0
   448 ;;		On exit  : 0/0
   449 ;;		Unchanged: 0/0
   450 ;; Data sizes:     COMRAM   BANK0   BANK1   BANK2   BANK3   BANK4   BANK5   BANK6   BANK7   BANK8   BANK9  BANK10  BANK1
      +1  BANK12  BANK13  BANK14  BANK15
   451 ;;      Params:         1       0       0       0       0       0       0       0       0       0       0       0       
      +0       0       0       0       0
   452 ;;      Locals:         2       0       0       0       0       0       0       0       0       0       0       0       
      +0       0       0       0       0
   453 ;;      Temps:          1       0       0       0       0       0       0       0       0       0       0       0       
      +0       0       0       0       0
   454 ;;      Totals:         4       0       0       0       0       0       0       0       0       0       0       0       
      +0       0       0       0       0
   455 ;;Total ram usage:        4 bytes
   456 ;; Hardware stack levels used: 1
   457 ;; Hardware stack levels required when called: 1
   458 ;; This function calls:
   459 ;;		_GPIO_PIN_WRITE_LOGIC
   460 ;; This function is called by:
   461 ;;		_main
   462 ;; This function uses a non-reentrant model
   463 ;;
   464                           
   465                           	psect	text1
   466   001462                     __ptext1:
   467                           	callstack 0
   468   001462                     _LED_Turn_ON:
   469                           	callstack 29
   470   001462                     
   471                           ;ECUAL/LED/ECU_LED.c: 46:     if(((void*)0) == led){
   472   001462  5030               	movf	LED_Turn_ON@led^0,w,c
   473   001464  A4D8               	btfss	status,2,c
   474   001466  EF37  F00A         	goto	u911
   475   00146A  EF39  F00A         	goto	u910
   476   00146E                     u911:
   477   00146E  EF3D  F00A         	goto	l84
   478   001472                     u910:
   479   001472                     
   480                           ;ECUAL/LED/ECU_LED.c: 47:         Retval = E_NOT_OK;
   481   001472  0E00               	movlw	0
   482   001474  6E32               	movwf	LED_Turn_ON@Retval^0,c
   483                           
   484                           ;ECUAL/LED/ECU_LED.c: 48:     }
   485   001476  EF6A  F00A         	goto	l1671
   486   00147A                     l84:
   487                           
   488                           ;ECUAL/LED/ECU_LED.c: 50:         PIN_CONFIG_T PIN_OBJ = {
   489   00147A  C040  F033         	movff	LED_Turn_ON@F3153,LED_Turn_ON@PIN_OBJ
   490   00147E  5030               	movf	LED_Turn_ON@led^0,w,c
   491   001480  6ED9               	movwf	fsr2l,c
   492   001482  6ADA               	clrf	fsr2h,c
   493   001484  50DF               	movf	223,w,c
   494   001486  0B07               	andlw	7
   495   001488  6E31               	movwf	??_LED_Turn_ON^0,c
   496   00148A  5033               	movf	LED_Turn_ON@PIN_OBJ^0,w,c
   497   00148C  1831               	xorwf	??_LED_Turn_ON^0,w,c
   498   00148E  0BF8               	andlw	-8
   499   001490  1831               	xorwf	??_LED_Turn_ON^0,w,c
   500   001492  6E33               	movwf	LED_Turn_ON@PIN_OBJ^0,c
   501   001494  5030               	movf	LED_Turn_ON@led^0,w,c
   502   001496  6ED9               	movwf	fsr2l,c
   503   001498  6ADA               	clrf	fsr2h,c
   504   00149A  30DF               	rrcf	223,w,c
   505   00149C  32E8               	rrcf	wreg,f,c
   506   00149E  32E8               	rrcf	wreg,f,c
   507   0014A0  0B07               	andlw	7
   508   0014A2  6E31               	movwf	??_LED_Turn_ON^0,c
   509   0014A4  4631               	rlncf	??_LED_Turn_ON^0,f,c
   510   0014A6  4631               	rlncf	??_LED_Turn_ON^0,f,c
   511   0014A8  4631               	rlncf	??_LED_Turn_ON^0,f,c
   512   0014AA  5033               	movf	LED_Turn_ON@PIN_OBJ^0,w,c
   513   0014AC  1831               	xorwf	??_LED_Turn_ON^0,w,c
   514   0014AE  0BC7               	andlw	-57
   515   0014B0  1831               	xorwf	??_LED_Turn_ON^0,w,c
   516   0014B2  6E33               	movwf	LED_Turn_ON@PIN_OBJ^0,c
   517   0014B4  9C33               	bcf	LED_Turn_ON@PIN_OBJ^0,6,c
   518   0014B6  5030               	movf	LED_Turn_ON@led^0,w,c
   519   0014B8  6ED9               	movwf	fsr2l,c
   520   0014BA  6ADA               	clrf	fsr2h,c
   521   0014BC  ACDF               	btfss	indf2,6,c
   522   0014BE  D002               	bra	u925
   523   0014C0  8E33               	bsf	LED_Turn_ON@PIN_OBJ^0,7,c
   524   0014C2  D001               	bra	u927
   525   0014C4                     u925:
   526   0014C4  9E33               	bcf	LED_Turn_ON@PIN_OBJ^0,7,c
   527   0014C6                     u927:
   528   0014C6                     
   529                           ;ECUAL/LED/ECU_LED.c: 57:         Retval = GPIO_PIN_WRITE_LOGIC(&PIN_OBJ , GPIO_HIGH);
   530   0014C6  0E33               	movlw	low LED_Turn_ON@PIN_OBJ
   531   0014C8  6E28               	movwf	GPIO_PIN_WRITE_LOGIC@_PIN_CONFIG^0,c
   532   0014CA  0E01               	movlw	1
   533   0014CC  6E29               	movwf	GPIO_PIN_WRITE_LOGIC@LOGIC^0,c
   534   0014CE  EC92  F008         	call	_GPIO_PIN_WRITE_LOGIC	;wreg free
   535   0014D2  6E32               	movwf	LED_Turn_ON@Retval^0,c
   536   0014D4                     l1671:
   537                           
   538                           ;ECUAL/LED/ECU_LED.c: 59:     return Retval;
   539   0014D4  5032               	movf	LED_Turn_ON@Retval^0,w,c
   540   0014D6  0012               	return		;funcret
   541   0014D8                     __end_of_LED_Turn_ON:
   542                           	callstack 0
   543                           
   544 ;; *************** function _KEYPAD_GET_VALUE *****************
   545 ;; Defined at:
   546 ;;		line 43 in file "ECUAL/Keypad/ECU_KEYPAD.c"
   547 ;; Parameters:    Size  Location     Type
   548 ;;  keypad          1    8[COMRAM] PTR const struct .
   549 ;;		 -> keypad1(8), 
   550 ;;  value           1    9[COMRAM] PTR unsigned char 
   551 ;;		 -> val(1), 
   552 ;; Auto vars:     Size  Location     Type
   553 ;;  c1              2   17[COMRAM] int 
   554 ;;  r2              2   13[COMRAM] int 
   555 ;;  r1              2   15[COMRAM] int 
   556 ;;  COLUMN_STATE    1   12[COMRAM] enum E3067
   557 ;;  Retval          1   11[COMRAM] enum E3063
   558 ;; Return value:  Size  Location     Type
   559 ;;                  1    wreg      enum E3063
   560 ;; Registers used:
   561 ;;		wreg, fsr1l, fsr1h, fsr2l, fsr2h, status,2, status,0, tblptrl, tblptrh, tblptru, prodl, prodh, cstack
   562 ;; Tracked objects:
   563 ;;		On entry : 0/0
   564 ;;		On exit  : 0/0
   565 ;;		Unchanged: 0/0
   566 ;; Data sizes:     COMRAM   BANK0   BANK1   BANK2   BANK3   BANK4   BANK5   BANK6   BANK7   BANK8   BANK9  BANK10  BANK1
      +1  BANK12  BANK13  BANK14  BANK15
   567 ;;      Params:         2       0       0       0       0       0       0       0       0       0       0       0       
      +0       0       0       0       0
   568 ;;      Locals:         8       0       0       0       0       0       0       0       0       0       0       0       
      +0       0       0       0       0
   569 ;;      Temps:          1       0       0       0       0       0       0       0       0       0       0       0       
      +0       0       0       0       0
   570 ;;      Totals:        11       0       0       0       0       0       0       0       0       0       0       0       
      +0       0       0       0       0
   571 ;;Total ram usage:       11 bytes
   572 ;; Hardware stack levels used: 1
   573 ;; Hardware stack levels required when called: 1
   574 ;; This function calls:
   575 ;;		_GPIO_PIN_READ_LOGIC
   576 ;;		_GPIO_PIN_WRITE_LOGIC
   577 ;; This function is called by:
   578 ;;		_main
   579 ;; This function uses a non-reentrant model
   580 ;;
   581                           
   582                           	psect	text2
   583   001234                     __ptext2:
   584                           	callstack 0
   585   001234                     _KEYPAD_GET_VALUE:
   586                           	callstack 29
   587   001234                     
   588                           ;ECUAL/Keypad/ECU_KEYPAD.c: 45:     if((((void*)0) == keypad) || (((void*)0) == value)){
   589   001234  5030               	movf	KEYPAD_GET_VALUE@keypad^0,w,c
   590   001236  B4D8               	btfsc	status,2,c
   591   001238  EF20  F009         	goto	u931
   592   00123C  EF22  F009         	goto	u930
   593   001240                     u931:
   594   001240  EF2A  F009         	goto	l1681
   595   001244                     u930:
   596   001244  5031               	movf	KEYPAD_GET_VALUE@value^0,w,c
   597   001246  A4D8               	btfss	status,2,c
   598   001248  EF28  F009         	goto	u941
   599   00124C  EF2A  F009         	goto	u940
   600   001250                     u941:
   601   001250  EF2E  F009         	goto	l1683
   602   001254                     u940:
   603   001254                     l1681:
   604                           
   605                           ;ECUAL/Keypad/ECU_KEYPAD.c: 46:         Retval = E_NOT_OK;
   606   001254  0E00               	movlw	0
   607   001256  6E33               	movwf	KEYPAD_GET_VALUE@Retval^0,c
   608                           
   609                           ;ECUAL/Keypad/ECU_KEYPAD.c: 47:     }
   610   001258  EF9B  F009         	goto	l1723
   611   00125C                     l1683:
   612                           
   613                           ;ECUAL/Keypad/ECU_KEYPAD.c: 49:         LOGIC_T COLUMN_STATE = GPIO_LOW;
   614   00125C  0E00               	movlw	0
   615   00125E  6E34               	movwf	KEYPAD_GET_VALUE@COLUMN_STATE^0,c
   616                           
   617                           ;ECUAL/Keypad/ECU_KEYPAD.c: 51:         for(int r1 = 0; r1 < 0x04 ; r1++){
   618   001260  0E00               	movlw	0
   619   001262  6E38               	movwf	(KEYPAD_GET_VALUE@r1+1)^0,c
   620   001264  0E00               	movlw	0
   621   001266  6E37               	movwf	KEYPAD_GET_VALUE@r1^0,c
   622   001268                     l1689:
   623                           
   624                           ;ECUAL/Keypad/ECU_KEYPAD.c: 52:             for(int r2 = 0; r2 < 0x04 ; r2++){
   625   001268  0E00               	movlw	0
   626   00126A  6E36               	movwf	(KEYPAD_GET_VALUE@r2+1)^0,c
   627   00126C  0E00               	movlw	0
   628   00126E  6E35               	movwf	KEYPAD_GET_VALUE@r2^0,c
   629   001270                     l1695:
   630   001270  5030               	movf	KEYPAD_GET_VALUE@keypad^0,w,c
   631   001272  2435               	addwf	KEYPAD_GET_VALUE@r2^0,w,c
   632   001274  6E28               	movwf	GPIO_PIN_WRITE_LOGIC@_PIN_CONFIG^0,c
   633   001276  0E00               	movlw	0
   634   001278  6E29               	movwf	GPIO_PIN_WRITE_LOGIC@LOGIC^0,c
   635   00127A  EC92  F008         	call	_GPIO_PIN_WRITE_LOGIC	;wreg free
   636   00127E                     
   637                           ;ECUAL/Keypad/ECU_KEYPAD.c: 54:             }
   638   00127E  4A35               	infsnz	KEYPAD_GET_VALUE@r2^0,f,c
   639   001280  2A36               	incf	(KEYPAD_GET_VALUE@r2+1)^0,f,c
   640   001282  BE36               	btfsc	(KEYPAD_GET_VALUE@r2+1)^0,7,c
   641   001284  EF4D  F009         	goto	u951
   642   001288  5036               	movf	(KEYPAD_GET_VALUE@r2+1)^0,w,c
   643   00128A  E109               	bnz	u950
   644   00128C  0E04               	movlw	4
   645   00128E  5C35               	subwf	KEYPAD_GET_VALUE@r2^0,w,c
   646   001290  A0D8               	btfss	status,0,c
   647   001292  EF4D  F009         	goto	u951
   648   001296  EF4F  F009         	goto	u950
   649   00129A                     u951:
   650   00129A  EF38  F009         	goto	l1695
   651   00129E                     u950:
   652   00129E  5030               	movf	KEYPAD_GET_VALUE@keypad^0,w,c
   653   0012A0  2437               	addwf	KEYPAD_GET_VALUE@r1^0,w,c
   654   0012A2  6E28               	movwf	GPIO_PIN_WRITE_LOGIC@_PIN_CONFIG^0,c
   655   0012A4  0E01               	movlw	1
   656   0012A6  6E29               	movwf	GPIO_PIN_WRITE_LOGIC@LOGIC^0,c
   657   0012A8  EC92  F008         	call	_GPIO_PIN_WRITE_LOGIC	;wreg free
   658   0012AC                     
   659                           ;ECUAL/Keypad/ECU_KEYPAD.c: 56:             for(int c1 = 0; c1 < 0x04 ; c1++){
   660   0012AC  0E00               	movlw	0
   661   0012AE  6E3A               	movwf	(KEYPAD_GET_VALUE@c1+1)^0,c
   662   0012B0  0E00               	movlw	0
   663   0012B2  6E39               	movwf	KEYPAD_GET_VALUE@c1^0,c
   664   0012B4                     l1709:
   665                           
   666                           ;ECUAL/Keypad/ECU_KEYPAD.c: 57:                 Retval = GPIO_PIN_READ_LOGIC(&(keypad->K
      +                          EYPAD_COLUMNS_PINS[c1]) , &COLUMN_STATE);
   667   0012B4  5030               	movf	KEYPAD_GET_VALUE@keypad^0,w,c
   668   0012B6  2439               	addwf	KEYPAD_GET_VALUE@c1^0,w,c
   669   0012B8  0F04               	addlw	4
   670   0012BA  6E28               	movwf	GPIO_PIN_READ_LOGIC@_PIN_CONFIG^0,c
   671   0012BC  0E34               	movlw	low KEYPAD_GET_VALUE@COLUMN_STATE
   672   0012BE  6E29               	movwf	GPIO_PIN_READ_LOGIC@LOGIC^0,c
   673   0012C0  EC9D  F009         	call	_GPIO_PIN_READ_LOGIC	;wreg free
   674   0012C4  6E33               	movwf	KEYPAD_GET_VALUE@Retval^0,c
   675   0012C6                     
   676                           ;ECUAL/Keypad/ECU_KEYPAD.c: 58:                 if(GPIO_HIGH == COLUMN_STATE){
   677   0012C6  0434               	decf	KEYPAD_GET_VALUE@COLUMN_STATE^0,w,c
   678   0012C8  A4D8               	btfss	status,2,c
   679   0012CA  EF69  F009         	goto	u961
   680   0012CE  EF6B  F009         	goto	u960
   681   0012D2                     u961:
   682   0012D2  EF7B  F009         	goto	l1715
   683   0012D6                     u960:
   684   0012D6                     
   685                           ;ECUAL/Keypad/ECU_KEYPAD.c: 59:                     *value = KEYPAD_VALUES[r1][c1];
   686   0012D6  5037               	movf	KEYPAD_GET_VALUE@r1^0,w,c
   687   0012D8  0D04               	mullw	4
   688   0012DA  50F3               	movf	243,w,c
   689   0012DC  0F01               	addlw	low _KEYPAD_VALUES
   690   0012DE  2439               	addwf	KEYPAD_GET_VALUE@c1^0,w,c
   691   0012E0  6E32               	movwf	??_KEYPAD_GET_VALUE^0,c
   692   0012E2  C032  FFF6         	movff	??_KEYPAD_GET_VALUE,tblptrl
   693   0012E6                     	if	1	;There is more than 1 active tblptr byte
   694   0012E6  0E10               	movlw	high __smallconst
   695   0012E8  6EF7               	movwf	tblptrh,c
   696   0012EA                     	endif
   697   0012EA                     	if	0	;tblptru may be non-zero
   698   0012EA                     	endif
   699   0012EA                     	if	0	;tblptru may be non-zero
   700   0012EA                     	endif
   701   0012EA  5031               	movf	KEYPAD_GET_VALUE@value^0,w,c
   702   0012EC  6ED9               	movwf	fsr2l,c
   703   0012EE  6ADA               	clrf	fsr2h,c
   704   0012F0  0008               	tblrd		*
   705   0012F2  CFF5 FFDF          	movff	tablat,indf2
   706   0012F6                     l1715:
   707                           
   708                           ;ECUAL/Keypad/ECU_KEYPAD.c: 62:             }
   709   0012F6  4A39               	infsnz	KEYPAD_GET_VALUE@c1^0,f,c
   710   0012F8  2A3A               	incf	(KEYPAD_GET_VALUE@c1+1)^0,f,c
   711   0012FA  BE3A               	btfsc	(KEYPAD_GET_VALUE@c1+1)^0,7,c
   712   0012FC  EF89  F009         	goto	u971
   713   001300  503A               	movf	(KEYPAD_GET_VALUE@c1+1)^0,w,c
   714   001302  E109               	bnz	u970
   715   001304  0E04               	movlw	4
   716   001306  5C39               	subwf	KEYPAD_GET_VALUE@c1^0,w,c
   717   001308  A0D8               	btfss	status,0,c
   718   00130A  EF89  F009         	goto	u971
   719   00130E  EF8B  F009         	goto	u970
   720   001312                     u971:
   721   001312  EF5A  F009         	goto	l1709
   722   001316                     u970:
   723   001316                     
   724                           ;ECUAL/Keypad/ECU_KEYPAD.c: 63:         }
   725   001316  4A37               	infsnz	KEYPAD_GET_VALUE@r1^0,f,c
   726   001318  2A38               	incf	(KEYPAD_GET_VALUE@r1+1)^0,f,c
   727   00131A  BE38               	btfsc	(KEYPAD_GET_VALUE@r1+1)^0,7,c
   728   00131C  EF99  F009         	goto	u981
   729   001320  5038               	movf	(KEYPAD_GET_VALUE@r1+1)^0,w,c
   730   001322  E109               	bnz	u980
   731   001324  0E04               	movlw	4
   732   001326  5C37               	subwf	KEYPAD_GET_VALUE@r1^0,w,c
   733   001328  A0D8               	btfss	status,0,c
   734   00132A  EF99  F009         	goto	u981
   735   00132E  EF9B  F009         	goto	u980
   736   001332                     u981:
   737   001332  EF34  F009         	goto	l1689
   738   001336                     u980:
   739   001336                     l1723:
   740                           
   741                           ;ECUAL/Keypad/ECU_KEYPAD.c: 65:     return Retval;
   742   001336  5033               	movf	KEYPAD_GET_VALUE@Retval^0,w,c
   743   001338  0012               	return		;funcret
   744   00133A                     __end_of_KEYPAD_GET_VALUE:
   745                           	callstack 0
   746                           
   747 ;; *************** function _GPIO_PIN_READ_LOGIC *****************
   748 ;; Defined at:
   749 ;;		line 116 in file "MCAL/GPIO/HAL_GPIO.c"
   750 ;; Parameters:    Size  Location     Type
   751 ;;  _PIN_CONFIG     1    0[COMRAM] PTR const struct .
   752 ;;		 -> keypad1$KEYPAD_COLUMNS_PINS(4), keypad1(8), 
   753 ;;  LOGIC           1    1[COMRAM] PTR enum E3067
   754 ;;		 -> KEYPAD_GET_VALUE@COLUMN_STATE(1), BUTTON_READ_STATUS@Btn_Log(1), 
   755 ;; Auto vars:     Size  Location     Type
   756 ;;  Retval          1    6[COMRAM] enum E3063
   757 ;; Return value:  Size  Location     Type
   758 ;;                  1    wreg      enum E3063
   759 ;; Registers used:
   760 ;;		wreg, fsr1l, fsr1h, fsr2l, fsr2h, status,2, status,0, prodl, prodh
   761 ;; Tracked objects:
   762 ;;		On entry : 0/0
   763 ;;		On exit  : 0/0
   764 ;;		Unchanged: 0/0
   765 ;; Data sizes:     COMRAM   BANK0   BANK1   BANK2   BANK3   BANK4   BANK5   BANK6   BANK7   BANK8   BANK9  BANK10  BANK1
      +1  BANK12  BANK13  BANK14  BANK15
   766 ;;      Params:         2       0       0       0       0       0       0       0       0       0       0       0       
      +0       0       0       0       0
   767 ;;      Locals:         1       0       0       0       0       0       0       0       0       0       0       0       
      +0       0       0       0       0
   768 ;;      Temps:          4       0       0       0       0       0       0       0       0       0       0       0       
      +0       0       0       0       0
   769 ;;      Totals:         7       0       0       0       0       0       0       0       0       0       0       0       
      +0       0       0       0       0
   770 ;;Total ram usage:        7 bytes
   771 ;; Hardware stack levels used: 1
   772 ;; This function calls:
   773 ;;		Nothing
   774 ;; This function is called by:
   775 ;;		_KEYPAD_GET_VALUE
   776 ;;		_BUTTON_READ_STATUS
   777 ;; This function uses a non-reentrant model
   778 ;;
   779                           
   780                           	psect	text3
   781   00133A                     __ptext3:
   782                           	callstack 0
   783   00133A                     _GPIO_PIN_READ_LOGIC:
   784                           	callstack 29
   785   00133A                     
   786                           ;MCAL/GPIO/HAL_GPIO.c: 118:     if(((void*)0) == _PIN_CONFIG || ((void*)0) == LOGIC || _
      +                          PIN_CONFIG->PIN >= 8){
   787   00133A  5028               	movf	GPIO_PIN_READ_LOGIC@_PIN_CONFIG^0,w,c
   788   00133C  B4D8               	btfsc	status,2,c
   789   00133E  EFA3  F009         	goto	u871
   790   001342  EFA5  F009         	goto	u870
   791   001346                     u871:
   792   001346  EFBD  F009         	goto	l1643
   793   00134A                     u870:
   794   00134A  5029               	movf	GPIO_PIN_READ_LOGIC@LOGIC^0,w,c
   795   00134C  B4D8               	btfsc	status,2,c
   796   00134E  EFAB  F009         	goto	u881
   797   001352  EFAD  F009         	goto	u880
   798   001356                     u881:
   799   001356  EFBD  F009         	goto	l1643
   800   00135A                     u880:
   801   00135A  5028               	movf	GPIO_PIN_READ_LOGIC@_PIN_CONFIG^0,w,c
   802   00135C  6ED9               	movwf	fsr2l,c
   803   00135E  6ADA               	clrf	fsr2h,c
   804   001360  30DF               	rrcf	223,w,c
   805   001362  32E8               	rrcf	wreg,f,c
   806   001364  32E8               	rrcf	wreg,f,c
   807   001366  0B07               	andlw	7
   808   001368  6E2A               	movwf	??_GPIO_PIN_READ_LOGIC^0,c
   809   00136A  0E07               	movlw	7
   810   00136C  642A               	cpfsgt	??_GPIO_PIN_READ_LOGIC^0,c
   811   00136E  EFBB  F009         	goto	u891
   812   001372  EFBD  F009         	goto	u890
   813   001376                     u891:
   814   001376  EFC1  F009         	goto	l1645
   815   00137A                     u890:
   816   00137A                     l1643:
   817                           
   818                           ;MCAL/GPIO/HAL_GPIO.c: 119:         Retval= E_NOT_OK;
   819   00137A  0E00               	movlw	0
   820   00137C  6E2E               	movwf	GPIO_PIN_READ_LOGIC@Retval^0,c
   821                           
   822                           ;MCAL/GPIO/HAL_GPIO.c: 120:     }
   823   00137E  EFED  F009         	goto	l1649
   824   001382                     l1645:
   825                           
   826                           ;MCAL/GPIO/HAL_GPIO.c: 122:         *LOGIC = ((*PORT_REG[_PIN_CONFIG->PORT] >> _PIN_CONF
      +                          IG->PIN) & ((uint8)0x01));
   827   001382  5029               	movf	GPIO_PIN_READ_LOGIC@LOGIC^0,w,c
   828   001384  6ED9               	movwf	fsr2l,c
   829   001386  6ADA               	clrf	fsr2h,c
   830   001388  5028               	movf	GPIO_PIN_READ_LOGIC@_PIN_CONFIG^0,w,c
   831   00138A  6EE1               	movwf	fsr1l,c
   832   00138C  6AE2               	clrf	fsr1h,c
   833   00138E  30E7               	rrcf	231,w,c
   834   001390  32E8               	rrcf	wreg,f,c
   835   001392  32E8               	rrcf	wreg,f,c
   836   001394  0B07               	andlw	7
   837   001396  6E2A               	movwf	??_GPIO_PIN_READ_LOGIC^0,c
   838   001398  5028               	movf	GPIO_PIN_READ_LOGIC@_PIN_CONFIG^0,w,c
   839   00139A  6EE1               	movwf	fsr1l,c
   840   00139C  6AE2               	clrf	fsr1h,c
   841   00139E  50E7               	movf	231,w,c
   842   0013A0  0B07               	andlw	7
   843   0013A2  0D02               	mullw	2
   844   0013A4  50F3               	movf	243,w,c
   845   0013A6  0F0B               	addlw	low _PORT_REG
   846   0013A8  6EE1               	movwf	fsr1l,c
   847   0013AA  6AE2               	clrf	fsr1h,c
   848   0013AC  CFE6 F02B          	movff	postinc1,??_GPIO_PIN_READ_LOGIC+1
   849   0013B0  CFE5 F02C          	movff	postdec1,??_GPIO_PIN_READ_LOGIC+2
   850   0013B4  C02B  FFE1         	movff	??_GPIO_PIN_READ_LOGIC+1,fsr1l
   851   0013B8  C02C  FFE2         	movff	??_GPIO_PIN_READ_LOGIC+2,fsr1h
   852   0013BC  50E7               	movf	indf1,w,c
   853   0013BE  6E2D               	movwf	(??_GPIO_PIN_READ_LOGIC+3)^0,c
   854   0013C0  2A2A               	incf	??_GPIO_PIN_READ_LOGIC^0,f,c
   855   0013C2  EFE5  F009         	goto	u904
   856   0013C6                     u905:
   857   0013C6  90D8               	bcf	status,0,c
   858   0013C8  322D               	rrcf	(??_GPIO_PIN_READ_LOGIC+3)^0,f,c
   859   0013CA                     u904:
   860   0013CA  2E2A               	decfsz	??_GPIO_PIN_READ_LOGIC^0,f,c
   861   0013CC  EFE3  F009         	goto	u905
   862   0013D0  502D               	movf	(??_GPIO_PIN_READ_LOGIC+3)^0,w,c
   863   0013D2  0B01               	andlw	1
   864   0013D4  6EDF               	movwf	indf2,c
   865   0013D6                     
   866                           ;MCAL/GPIO/HAL_GPIO.c: 123:         Retval = E_OK;
   867   0013D6  0E01               	movlw	1
   868   0013D8  6E2E               	movwf	GPIO_PIN_READ_LOGIC@Retval^0,c
   869   0013DA                     l1649:
   870                           
   871                           ;MCAL/GPIO/HAL_GPIO.c: 125:     return Retval;
   872   0013DA  502E               	movf	GPIO_PIN_READ_LOGIC@Retval^0,w,c
   873   0013DC  0012               	return		;funcret
   874   0013DE                     __end_of_GPIO_PIN_READ_LOGIC:
   875                           	callstack 0
   876                           
   877 ;; *************** function _Application_intialize *****************
   878 ;; Defined at:
   879 ;;		line 25 in file "Drivers_Main.c"
   880 ;; Parameters:    Size  Location     Type
   881 ;;		None
   882 ;; Auto vars:     Size  Location     Type
   883 ;;		None
   884 ;; Return value:  Size  Location     Type
   885 ;;                  1    wreg      void 
   886 ;; Registers used:
   887 ;;		wreg, fsr2l, fsr2h, status,2, status,0, prodl, prodh, cstack
   888 ;; Tracked objects:
   889 ;;		On entry : 0/0
   890 ;;		On exit  : 0/0
   891 ;;		Unchanged: 0/0
   892 ;; Data sizes:     COMRAM   BANK0   BANK1   BANK2   BANK3   BANK4   BANK5   BANK6   BANK7   BANK8   BANK9  BANK10  BANK1
      +1  BANK12  BANK13  BANK14  BANK15
   893 ;;      Params:         0       0       0       0       0       0       0       0       0       0       0       0       
      +0       0       0       0       0
   894 ;;      Locals:         0       0       0       0       0       0       0       0       0       0       0       0       
      +0       0       0       0       0
   895 ;;      Temps:          0       0       0       0       0       0       0       0       0       0       0       0       
      +0       0       0       0       0
   896 ;;      Totals:         0       0       0       0       0       0       0       0       0       0       0       0       
      +0       0       0       0       0
   897 ;;Total ram usage:        0 bytes
   898 ;; Hardware stack levels used: 1
   899 ;; Hardware stack levels required when called: 4
   900 ;; This function calls:
   901 ;;		_ECU_LAYER_INITIALIZE
   902 ;; This function is called by:
   903 ;;		_main
   904 ;; This function uses a non-reentrant model
   905 ;;
   906                           
   907                           	psect	text4
   908   00164E                     __ptext4:
   909                           	callstack 0
   910   00164E                     _Application_intialize:
   911                           	callstack 26
   912   00164E                     
   913                           ;Drivers_Main.c: 26:     ECU_LAYER_INITIALIZE();
   914   00164E  EC1E  F00B         	call	_ECU_LAYER_INITIALIZE	;wreg free
   915   001652  0012               	return		;funcret
   916   001654                     __end_of_Application_intialize:
   917                           	callstack 0
   918                           
   919 ;; *************** function _ECU_LAYER_INITIALIZE *****************
   920 ;; Defined at:
   921 ;;		line 57 in file "ECUAL/ECU_INIT.c"
   922 ;; Parameters:    Size  Location     Type
   923 ;;		None
   924 ;; Auto vars:     Size  Location     Type
   925 ;;  Ret             1    0        enum E3063
   926 ;; Return value:  Size  Location     Type
   927 ;;                  1    wreg      void 
   928 ;; Registers used:
   929 ;;		wreg, fsr2l, fsr2h, status,2, status,0, prodl, prodh, cstack
   930 ;; Tracked objects:
   931 ;;		On entry : 0/0
   932 ;;		On exit  : 0/0
   933 ;;		Unchanged: 0/0
   934 ;; Data sizes:     COMRAM   BANK0   BANK1   BANK2   BANK3   BANK4   BANK5   BANK6   BANK7   BANK8   BANK9  BANK10  BANK1
      +1  BANK12  BANK13  BANK14  BANK15
   935 ;;      Params:         0       0       0       0       0       0       0       0       0       0       0       0       
      +0       0       0       0       0
   936 ;;      Locals:         0       0       0       0       0       0       0       0       0       0       0       0       
      +0       0       0       0       0
   937 ;;      Temps:          0       0       0       0       0       0       0       0       0       0       0       0       
      +0       0       0       0       0
   938 ;;      Totals:         0       0       0       0       0       0       0       0       0       0       0       0       
      +0       0       0       0       0
   939 ;;Total ram usage:        0 bytes
   940 ;; Hardware stack levels used: 1
   941 ;; Hardware stack levels required when called: 3
   942 ;; This function calls:
   943 ;;		_KEYPAD_INITIALIZE
   944 ;;		_LED_INITIALIZE
   945 ;; This function is called by:
   946 ;;		_Application_intialize
   947 ;; This function uses a non-reentrant model
   948 ;;
   949                           
   950                           	psect	text5
   951   00163C                     __ptext5:
   952                           	callstack 0
   953   00163C                     _ECU_LAYER_INITIALIZE:
   954                           	callstack 26
   955   00163C  0E1F               	movlw	low _keypad1
   956   00163E  6E33               	movwf	KEYPAD_INITIALIZE@keypad^0,c
   957   001640  ECEF  F009         	call	_KEYPAD_INITIALIZE	;wreg free
   958   001644  0E27               	movlw	low _led1
   959   001646  6E33               	movwf	LED_INITIALIZE@led^0,c
   960   001648  EC6C  F00A         	call	_LED_INITIALIZE	;wreg free
   961   00164C  0012               	return		;funcret
   962   00164E                     __end_of_ECU_LAYER_INITIALIZE:
   963                           	callstack 0
   964                           
   965 ;; *************** function _LED_INITIALIZE *****************
   966 ;; Defined at:
   967 ;;		line 18 in file "ECUAL/LED/ECU_LED.c"
   968 ;; Parameters:    Size  Location     Type
   969 ;;  led             1   11[COMRAM] PTR const struct .
   970 ;;		 -> led1(1), 
   971 ;; Auto vars:     Size  Location     Type
   972 ;;  PIN_OBJ         1   14[COMRAM] struct .
   973 ;;  Retval          1   13[COMRAM] enum E3063
   974 ;; Return value:  Size  Location     Type
   975 ;;                  1    wreg      enum E3063
   976 ;; Registers used:
   977 ;;		wreg, fsr2l, fsr2h, status,2, status,0, prodl, prodh, cstack
   978 ;; Tracked objects:
   979 ;;		On entry : 0/0
   980 ;;		On exit  : 0/0
   981 ;;		Unchanged: 0/0
   982 ;; Data sizes:     COMRAM   BANK0   BANK1   BANK2   BANK3   BANK4   BANK5   BANK6   BANK7   BANK8   BANK9  BANK10  BANK1
      +1  BANK12  BANK13  BANK14  BANK15
   983 ;;      Params:         1       0       0       0       0       0       0       0       0       0       0       0       
      +0       0       0       0       0
   984 ;;      Locals:         2       0       0       0       0       0       0       0       0       0       0       0       
      +0       0       0       0       0
   985 ;;      Temps:          1       0       0       0       0       0       0       0       0       0       0       0       
      +0       0       0       0       0
   986 ;;      Totals:         4       0       0       0       0       0       0       0       0       0       0       0       
      +0       0       0       0       0
   987 ;;Total ram usage:        4 bytes
   988 ;; Hardware stack levels used: 1
   989 ;; Hardware stack levels required when called: 2
   990 ;; This function calls:
   991 ;;		_GPIO_PIN_INITIALIZE
   992 ;; This function is called by:
   993 ;;		_ECU_LAYER_INITIALIZE
   994 ;; This function uses a non-reentrant model
   995 ;;
   996                           
   997                           	psect	text6
   998   0014D8                     __ptext6:
   999                           	callstack 0
  1000   0014D8                     _LED_INITIALIZE:
  1001                           	callstack 26
  1002   0014D8                     
  1003                           ;ECUAL/LED/ECU_LED.c: 20:     if(((void*)0) == led){
  1004   0014D8  5033               	movf	LED_INITIALIZE@led^0,w,c
  1005   0014DA  A4D8               	btfss	status,2,c
  1006   0014DC  EF72  F00A         	goto	u821
  1007   0014E0  EF74  F00A         	goto	u820
  1008   0014E4                     u821:
  1009   0014E4  EF78  F00A         	goto	l77
  1010   0014E8                     u820:
  1011   0014E8                     
  1012                           ;ECUAL/LED/ECU_LED.c: 21:         Retval = E_NOT_OK;
  1013   0014E8  0E00               	movlw	0
  1014   0014EA  6E35               	movwf	LED_INITIALIZE@Retval^0,c
  1015                           
  1016                           ;ECUAL/LED/ECU_LED.c: 22:     }
  1017   0014EC  EFA3  F00A         	goto	l1601
  1018   0014F0                     l77:
  1019                           
  1020                           ;ECUAL/LED/ECU_LED.c: 24:         PIN_CONFIG_T PIN_OBJ = {
  1021   0014F0  C041  F036         	movff	LED_INITIALIZE@F3148,LED_INITIALIZE@PIN_OBJ
  1022   0014F4  5033               	movf	LED_INITIALIZE@led^0,w,c
  1023   0014F6  6ED9               	movwf	fsr2l,c
  1024   0014F8  6ADA               	clrf	fsr2h,c
  1025   0014FA  50DF               	movf	223,w,c
  1026   0014FC  0B07               	andlw	7
  1027   0014FE  6E34               	movwf	??_LED_INITIALIZE^0,c
  1028   001500  5036               	movf	LED_INITIALIZE@PIN_OBJ^0,w,c
  1029   001502  1834               	xorwf	??_LED_INITIALIZE^0,w,c
  1030   001504  0BF8               	andlw	-8
  1031   001506  1834               	xorwf	??_LED_INITIALIZE^0,w,c
  1032   001508  6E36               	movwf	LED_INITIALIZE@PIN_OBJ^0,c
  1033   00150A  5033               	movf	LED_INITIALIZE@led^0,w,c
  1034   00150C  6ED9               	movwf	fsr2l,c
  1035   00150E  6ADA               	clrf	fsr2h,c
  1036   001510  30DF               	rrcf	223,w,c
  1037   001512  32E8               	rrcf	wreg,f,c
  1038   001514  32E8               	rrcf	wreg,f,c
  1039   001516  0B07               	andlw	7
  1040   001518  6E34               	movwf	??_LED_INITIALIZE^0,c
  1041   00151A  4634               	rlncf	??_LED_INITIALIZE^0,f,c
  1042   00151C  4634               	rlncf	??_LED_INITIALIZE^0,f,c
  1043   00151E  4634               	rlncf	??_LED_INITIALIZE^0,f,c
  1044   001520  5036               	movf	LED_INITIALIZE@PIN_OBJ^0,w,c
  1045   001522  1834               	xorwf	??_LED_INITIALIZE^0,w,c
  1046   001524  0BC7               	andlw	-57
  1047   001526  1834               	xorwf	??_LED_INITIALIZE^0,w,c
  1048   001528  6E36               	movwf	LED_INITIALIZE@PIN_OBJ^0,c
  1049   00152A  9C36               	bcf	LED_INITIALIZE@PIN_OBJ^0,6,c
  1050   00152C  5033               	movf	LED_INITIALIZE@led^0,w,c
  1051   00152E  6ED9               	movwf	fsr2l,c
  1052   001530  6ADA               	clrf	fsr2h,c
  1053   001532  ACDF               	btfss	indf2,6,c
  1054   001534  D002               	bra	u835
  1055   001536  8E36               	bsf	LED_INITIALIZE@PIN_OBJ^0,7,c
  1056   001538  D001               	bra	u837
  1057   00153A                     u835:
  1058   00153A  9E36               	bcf	LED_INITIALIZE@PIN_OBJ^0,7,c
  1059   00153C                     u837:
  1060   00153C                     
  1061                           ;ECUAL/LED/ECU_LED.c: 31:         Retval = GPIO_PIN_INITIALIZE(&PIN_OBJ);
  1062   00153C  0E36               	movlw	low LED_INITIALIZE@PIN_OBJ
  1063   00153E  6E30               	movwf	GPIO_PIN_INITIALIZE@_PIN_CONFIG^0,c
  1064   001540  ECA5  F00A         	call	_GPIO_PIN_INITIALIZE	;wreg free
  1065   001544  6E35               	movwf	LED_INITIALIZE@Retval^0,c
  1066   001546                     l1601:
  1067                           
  1068                           ;ECUAL/LED/ECU_LED.c: 33:     return Retval;
  1069   001546  5035               	movf	LED_INITIALIZE@Retval^0,w,c
  1070   001548  0012               	return		;funcret
  1071   00154A                     __end_of_LED_INITIALIZE:
  1072                           	callstack 0
  1073                           
  1074 ;; *************** function _KEYPAD_INITIALIZE *****************
  1075 ;; Defined at:
  1076 ;;		line 22 in file "ECUAL/Keypad/ECU_KEYPAD.c"
  1077 ;; Parameters:    Size  Location     Type
  1078 ;;  keypad          1   11[COMRAM] PTR const struct .
  1079 ;;		 -> keypad1(8), 
  1080 ;; Auto vars:     Size  Location     Type
  1081 ;;  c               2   15[COMRAM] int 
  1082 ;;  r               2   13[COMRAM] int 
  1083 ;;  Retval          1   12[COMRAM] enum E3063
  1084 ;; Return value:  Size  Location     Type
  1085 ;;                  1    wreg      enum E3063
  1086 ;; Registers used:
  1087 ;;		wreg, fsr2l, fsr2h, status,2, status,0, prodl, prodh, cstack
  1088 ;; Tracked objects:
  1089 ;;		On entry : 0/0
  1090 ;;		On exit  : 0/0
  1091 ;;		Unchanged: 0/0
  1092 ;; Data sizes:     COMRAM   BANK0   BANK1   BANK2   BANK3   BANK4   BANK5   BANK6   BANK7   BANK8   BANK9  BANK10  BANK1
      +1  BANK12  BANK13  BANK14  BANK15
  1093 ;;      Params:         1       0       0       0       0       0       0       0       0       0       0       0       
      +0       0       0       0       0
  1094 ;;      Locals:         5       0       0       0       0       0       0       0       0       0       0       0       
      +0       0       0       0       0
  1095 ;;      Temps:          0       0       0       0       0       0       0       0       0       0       0       0       
      +0       0       0       0       0
  1096 ;;      Totals:         6       0       0       0       0       0       0       0       0       0       0       0       
      +0       0       0       0       0
  1097 ;;Total ram usage:        6 bytes
  1098 ;; Hardware stack levels used: 1
  1099 ;; Hardware stack levels required when called: 2
  1100 ;; This function calls:
  1101 ;;		_GPIO_PIN_DIRECTION_INITIALIZE
  1102 ;;		_GPIO_PIN_INITIALIZE
  1103 ;; This function is called by:
  1104 ;;		_ECU_LAYER_INITIALIZE
  1105 ;; This function uses a non-reentrant model
  1106 ;;
  1107                           
  1108                           	psect	text7
  1109   0013DE                     __ptext7:
  1110                           	callstack 0
  1111   0013DE                     _KEYPAD_INITIALIZE:
  1112                           	callstack 26
  1113   0013DE                     
  1114                           ;ECUAL/Keypad/ECU_KEYPAD.c: 24:     if(((void*)0) == keypad){
  1115   0013DE  5033               	movf	KEYPAD_INITIALIZE@keypad^0,w,c
  1116   0013E0  A4D8               	btfss	status,2,c
  1117   0013E2  EFF5  F009         	goto	u841
  1118   0013E6  EFF7  F009         	goto	u840
  1119   0013EA                     u841:
  1120   0013EA  EFFB  F009         	goto	l1609
  1121   0013EE                     u840:
  1122   0013EE                     
  1123                           ;ECUAL/Keypad/ECU_KEYPAD.c: 25:         Retval = E_NOT_OK;
  1124   0013EE  0E00               	movlw	0
  1125   0013F0  6E34               	movwf	KEYPAD_INITIALIZE@Retval^0,c
  1126                           
  1127                           ;ECUAL/Keypad/ECU_KEYPAD.c: 26:     }
  1128   0013F2  EF2F  F00A         	goto	l1633
  1129   0013F6                     l1609:
  1130                           
  1131                           ;ECUAL/Keypad/ECU_KEYPAD.c: 28:         for(int r = 0x00; r < 0x04 ; r++){
  1132   0013F6  0E00               	movlw	0
  1133   0013F8  6E36               	movwf	(KEYPAD_INITIALIZE@r+1)^0,c
  1134   0013FA  0E00               	movlw	0
  1135   0013FC  6E35               	movwf	KEYPAD_INITIALIZE@r^0,c
  1136   0013FE                     l1615:
  1137   0013FE  5033               	movf	KEYPAD_INITIALIZE@keypad^0,w,c
  1138   001400  2435               	addwf	KEYPAD_INITIALIZE@r^0,w,c
  1139   001402  6E30               	movwf	GPIO_PIN_INITIALIZE@_PIN_CONFIG^0,c
  1140   001404  ECA5  F00A         	call	_GPIO_PIN_INITIALIZE	;wreg free
  1141   001408                     
  1142                           ;ECUAL/Keypad/ECU_KEYPAD.c: 30:         }
  1143   001408  4A35               	infsnz	KEYPAD_INITIALIZE@r^0,f,c
  1144   00140A  2A36               	incf	(KEYPAD_INITIALIZE@r+1)^0,f,c
  1145   00140C  BE36               	btfsc	(KEYPAD_INITIALIZE@r+1)^0,7,c
  1146   00140E  EF12  F00A         	goto	u851
  1147   001412  5036               	movf	(KEYPAD_INITIALIZE@r+1)^0,w,c
  1148   001414  E109               	bnz	u850
  1149   001416  0E04               	movlw	4
  1150   001418  5C35               	subwf	KEYPAD_INITIALIZE@r^0,w,c
  1151   00141A  A0D8               	btfss	status,0,c
  1152   00141C  EF12  F00A         	goto	u851
  1153   001420  EF14  F00A         	goto	u850
  1154   001424                     u851:
  1155   001424  EFFF  F009         	goto	l1615
  1156   001428                     u850:
  1157   001428                     
  1158                           ;ECUAL/Keypad/ECU_KEYPAD.c: 31:         for(int c = 0x00; c < 0x04 ; c++){
  1159   001428  0E00               	movlw	0
  1160   00142A  6E38               	movwf	(KEYPAD_INITIALIZE@c+1)^0,c
  1161   00142C  0E00               	movlw	0
  1162   00142E  6E37               	movwf	KEYPAD_INITIALIZE@c^0,c
  1163   001430                     l1627:
  1164                           
  1165                           ;ECUAL/Keypad/ECU_KEYPAD.c: 32:             Retval = GPIO_PIN_DIRECTION_INITIALIZE(&(key
      +                          pad->KEYPAD_COLUMNS_PINS[c]));
  1166   001430  5033               	movf	KEYPAD_INITIALIZE@keypad^0,w,c
  1167   001432  2437               	addwf	KEYPAD_INITIALIZE@c^0,w,c
  1168   001434  0F04               	addlw	4
  1169   001436  6E28               	movwf	GPIO_PIN_DIRECTION_INITIALIZE@_PIN_CONFIG^0,c
  1170   001438  EC09  F008         	call	_GPIO_PIN_DIRECTION_INITIALIZE	;wreg free
  1171   00143C  6E34               	movwf	KEYPAD_INITIALIZE@Retval^0,c
  1172   00143E                     
  1173                           ;ECUAL/Keypad/ECU_KEYPAD.c: 33:         }
  1174   00143E  4A37               	infsnz	KEYPAD_INITIALIZE@c^0,f,c
  1175   001440  2A38               	incf	(KEYPAD_INITIALIZE@c+1)^0,f,c
  1176   001442  BE38               	btfsc	(KEYPAD_INITIALIZE@c+1)^0,7,c
  1177   001444  EF2D  F00A         	goto	u861
  1178   001448  5038               	movf	(KEYPAD_INITIALIZE@c+1)^0,w,c
  1179   00144A  E109               	bnz	u860
  1180   00144C  0E04               	movlw	4
  1181   00144E  5C37               	subwf	KEYPAD_INITIALIZE@c^0,w,c
  1182   001450  A0D8               	btfss	status,0,c
  1183   001452  EF2D  F00A         	goto	u861
  1184   001456  EF2F  F00A         	goto	u860
  1185   00145A                     u861:
  1186   00145A  EF18  F00A         	goto	l1627
  1187   00145E                     u860:
  1188   00145E                     l1633:
  1189                           
  1190                           ;ECUAL/Keypad/ECU_KEYPAD.c: 35:     return Retval;
  1191   00145E  5034               	movf	KEYPAD_INITIALIZE@Retval^0,w,c
  1192   001460  0012               	return		;funcret
  1193   001462                     __end_of_KEYPAD_INITIALIZE:
  1194                           	callstack 0
  1195                           
  1196 ;; *************** function _GPIO_PIN_INITIALIZE *****************
  1197 ;; Defined at:
  1198 ;;		line 156 in file "MCAL/GPIO/HAL_GPIO.c"
  1199 ;; Parameters:    Size  Location     Type
  1200 ;;  _PIN_CONFIG     1    8[COMRAM] PTR const struct .
  1201 ;;		 -> keypad1$KEYPAD_ROWS_PINS(4), keypad1(8), RELAY_INITIALIZE@pin(1), LED_INITIALIZE@PIN_OBJ(1), 
  1202 ;; Auto vars:     Size  Location     Type
  1203 ;;  Retval          1   10[COMRAM] enum E3063
  1204 ;; Return value:  Size  Location     Type
  1205 ;;                  1    wreg      enum E3063
  1206 ;; Registers used:
  1207 ;;		wreg, fsr2l, fsr2h, status,2, status,0, prodl, prodh, cstack
  1208 ;; Tracked objects:
  1209 ;;		On entry : 0/0
  1210 ;;		On exit  : 0/0
  1211 ;;		Unchanged: 0/0
  1212 ;; Data sizes:     COMRAM   BANK0   BANK1   BANK2   BANK3   BANK4   BANK5   BANK6   BANK7   BANK8   BANK9  BANK10  BANK1
      +1  BANK12  BANK13  BANK14  BANK15
  1213 ;;      Params:         1       0       0       0       0       0       0       0       0       0       0       0       
      +0       0       0       0       0
  1214 ;;      Locals:         1       0       0       0       0       0       0       0       0       0       0       0       
      +0       0       0       0       0
  1215 ;;      Temps:          1       0       0       0       0       0       0       0       0       0       0       0       
      +0       0       0       0       0
  1216 ;;      Totals:         3       0       0       0       0       0       0       0       0       0       0       0       
      +0       0       0       0       0
  1217 ;;Total ram usage:        3 bytes
  1218 ;; Hardware stack levels used: 1
  1219 ;; Hardware stack levels required when called: 1
  1220 ;; This function calls:
  1221 ;;		_GPIO_PIN_DIRECTION_INITIALIZE
  1222 ;;		_GPIO_PIN_WRITE_LOGIC
  1223 ;; This function is called by:
  1224 ;;		_LED_INITIALIZE
  1225 ;;		_KEYPAD_INITIALIZE
  1226 ;;		_SEGMENT_INITIALIZE
  1227 ;;		_DC_MOTOR_INITIALIZE
  1228 ;;		_RELAY_INITIALIZE
  1229 ;; This function uses a non-reentrant model
  1230 ;;
  1231                           
  1232                           	psect	text8
  1233   00154A                     __ptext8:
  1234                           	callstack 0
  1235   00154A                     _GPIO_PIN_INITIALIZE:
  1236                           	callstack 26
  1237   00154A                     
  1238                           ;MCAL/GPIO/HAL_GPIO.c: 158:     if(((void*)0) == _PIN_CONFIG || _PIN_CONFIG->PIN >= 8){
  1239   00154A  5030               	movf	GPIO_PIN_INITIALIZE@_PIN_CONFIG^0,w,c
  1240   00154C  B4D8               	btfsc	status,2,c
  1241   00154E  EFAB  F00A         	goto	u801
  1242   001552  EFAD  F00A         	goto	u800
  1243   001556                     u801:
  1244   001556  EFBD  F00A         	goto	l1579
  1245   00155A                     u800:
  1246   00155A  5030               	movf	GPIO_PIN_INITIALIZE@_PIN_CONFIG^0,w,c
  1247   00155C  6ED9               	movwf	fsr2l,c
  1248   00155E  6ADA               	clrf	fsr2h,c
  1249   001560  30DF               	rrcf	223,w,c
  1250   001562  32E8               	rrcf	wreg,f,c
  1251   001564  32E8               	rrcf	wreg,f,c
  1252   001566  0B07               	andlw	7
  1253   001568  6E31               	movwf	??_GPIO_PIN_INITIALIZE^0,c
  1254   00156A  0E07               	movlw	7
  1255   00156C  6431               	cpfsgt	??_GPIO_PIN_INITIALIZE^0,c
  1256   00156E  EFBB  F00A         	goto	u811
  1257   001572  EFBD  F00A         	goto	u810
  1258   001576                     u811:
  1259   001576  EFC1  F00A         	goto	l1581
  1260   00157A                     u810:
  1261   00157A                     l1579:
  1262                           
  1263                           ;MCAL/GPIO/HAL_GPIO.c: 159:         Retval = E_NOT_OK;
  1264   00157A  0E00               	movlw	0
  1265   00157C  6E32               	movwf	GPIO_PIN_INITIALIZE@Retval^0,c
  1266                           
  1267                           ;MCAL/GPIO/HAL_GPIO.c: 160:     }
  1268   00157E  EFD2  F00A         	goto	l1585
  1269   001582                     l1581:
  1270                           
  1271                           ;MCAL/GPIO/HAL_GPIO.c: 162:         GPIO_PIN_DIRECTION_INITIALIZE(_PIN_CONFIG);
  1272   001582  C030  F028         	movff	GPIO_PIN_INITIALIZE@_PIN_CONFIG,GPIO_PIN_DIRECTION_INITIALIZE@_PIN_CONFIG
  1273   001586  EC09  F008         	call	_GPIO_PIN_DIRECTION_INITIALIZE	;wreg free
  1274                           
  1275                           ;MCAL/GPIO/HAL_GPIO.c: 163:         GPIO_PIN_WRITE_LOGIC(_PIN_CONFIG,_PIN_CONFIG->LOGIC)
      +                          ;
  1276   00158A  C030  F028         	movff	GPIO_PIN_INITIALIZE@_PIN_CONFIG,GPIO_PIN_WRITE_LOGIC@_PIN_CONFIG
  1277   00158E  5030               	movf	GPIO_PIN_INITIALIZE@_PIN_CONFIG^0,w,c
  1278   001590  6ED9               	movwf	fsr2l,c
  1279   001592  6ADA               	clrf	fsr2h,c
  1280   001594  0E00               	movlw	0
  1281   001596  BEDF               	btfsc	indf2,7,c
  1282   001598  0E01               	movlw	1
  1283   00159A  6E29               	movwf	GPIO_PIN_WRITE_LOGIC@LOGIC^0,c
  1284   00159C  EC92  F008         	call	_GPIO_PIN_WRITE_LOGIC	;wreg free
  1285   0015A0                     
  1286                           ;MCAL/GPIO/HAL_GPIO.c: 164:         Retval = E_OK;
  1287   0015A0  0E01               	movlw	1
  1288   0015A2  6E32               	movwf	GPIO_PIN_INITIALIZE@Retval^0,c
  1289   0015A4                     l1585:
  1290                           
  1291                           ;MCAL/GPIO/HAL_GPIO.c: 166:     return Retval;
  1292   0015A4  5032               	movf	GPIO_PIN_INITIALIZE@Retval^0,w,c
  1293   0015A6  0012               	return		;funcret
  1294   0015A8                     __end_of_GPIO_PIN_INITIALIZE:
  1295                           	callstack 0
  1296                           
  1297 ;; *************** function _GPIO_PIN_WRITE_LOGIC *****************
  1298 ;; Defined at:
  1299 ;;		line 84 in file "MCAL/GPIO/HAL_GPIO.c"
  1300 ;; Parameters:    Size  Location     Type
  1301 ;;  _PIN_CONFIG     1    0[COMRAM] PTR const struct .
  1302 ;;		 -> keypad1$KEYPAD_ROWS_PINS(4), keypad1(8), RELAY_TURN_OFF@pin(1), RELAY_TURN_ON@pin(1), 
  1303 ;;		 -> RELAY_INITIALIZE@pin(1), LED_Turn_OFF@PIN_OBJ(1), LED_Turn_ON@PIN_OBJ(1), LED_INITIALIZE@PIN_OBJ(1), 
  1304 ;;  LOGIC           1    1[COMRAM] enum E3067
  1305 ;; Auto vars:     Size  Location     Type
  1306 ;;  Retval          1    7[COMRAM] enum E3063
  1307 ;; Return value:  Size  Location     Type
  1308 ;;                  1    wreg      enum E3063
  1309 ;; Registers used:
  1310 ;;		wreg, fsr2l, fsr2h, status,2, status,0, prodl, prodh
  1311 ;; Tracked objects:
  1312 ;;		On entry : 0/0
  1313 ;;		On exit  : 0/0
  1314 ;;		Unchanged: 0/0
  1315 ;; Data sizes:     COMRAM   BANK0   BANK1   BANK2   BANK3   BANK4   BANK5   BANK6   BANK7   BANK8   BANK9  BANK10  BANK1
      +1  BANK12  BANK13  BANK14  BANK15
  1316 ;;      Params:         2       0       0       0       0       0       0       0       0       0       0       0       
      +0       0       0       0       0
  1317 ;;      Locals:         1       0       0       0       0       0       0       0       0       0       0       0       
      +0       0       0       0       0
  1318 ;;      Temps:          5       0       0       0       0       0       0       0       0       0       0       0       
      +0       0       0       0       0
  1319 ;;      Totals:         8       0       0       0       0       0       0       0       0       0       0       0       
      +0       0       0       0       0
  1320 ;;Total ram usage:        8 bytes
  1321 ;; Hardware stack levels used: 1
  1322 ;; This function calls:
  1323 ;;		Nothing
  1324 ;; This function is called by:
  1325 ;;		_LED_Turn_ON
  1326 ;;		_GPIO_PIN_INITIALIZE
  1327 ;;		_KEYPAD_GET_VALUE
  1328 ;;		_SEGMENT_WRITE_NUMBER
  1329 ;;		_DC_MOTOR_ROTATE_CW
  1330 ;;		_DC_MOTOR_ROTATE_CCW
  1331 ;;		_DC_MOTOR_STOP
  1332 ;;		_LED_Turn_OFF
  1333 ;;		_RELAY_TURN_ON
  1334 ;;		_RELAY_TURN_OFF
  1335 ;; This function uses a non-reentrant model
  1336 ;;
  1337                           
  1338                           	psect	text9
  1339   001124                     __ptext9:
  1340                           	callstack 0
  1341   001124                     _GPIO_PIN_WRITE_LOGIC:
  1342                           	callstack 29
  1343   001124                     
  1344                           ;MCAL/GPIO/HAL_GPIO.c: 86:     if(((void*)0) == _PIN_CONFIG || _PIN_CONFIG->PIN >= 8){
  1345   001124  5028               	movf	GPIO_PIN_WRITE_LOGIC@_PIN_CONFIG^0,w,c
  1346   001126  B4D8               	btfsc	status,2,c
  1347   001128  EF98  F008         	goto	u711
  1348   00112C  EF9A  F008         	goto	u710
  1349   001130                     u711:
  1350   001130  EFAA  F008         	goto	l1527
  1351   001134                     u710:
  1352   001134  5028               	movf	GPIO_PIN_WRITE_LOGIC@_PIN_CONFIG^0,w,c
  1353   001136  6ED9               	movwf	fsr2l,c
  1354   001138  6ADA               	clrf	fsr2h,c
  1355   00113A  30DF               	rrcf	223,w,c
  1356   00113C  32E8               	rrcf	wreg,f,c
  1357   00113E  32E8               	rrcf	wreg,f,c
  1358   001140  0B07               	andlw	7
  1359   001142  6E2A               	movwf	??_GPIO_PIN_WRITE_LOGIC^0,c
  1360   001144  0E07               	movlw	7
  1361   001146  642A               	cpfsgt	??_GPIO_PIN_WRITE_LOGIC^0,c
  1362   001148  EFA8  F008         	goto	u721
  1363   00114C  EFAA  F008         	goto	u720
  1364   001150                     u721:
  1365   001150  EF03  F009         	goto	l1541
  1366   001154                     u720:
  1367   001154                     l1527:
  1368                           
  1369                           ;MCAL/GPIO/HAL_GPIO.c: 87:         Retval= E_NOT_OK;
  1370   001154  0E00               	movlw	0
  1371   001156  6E2F               	movwf	GPIO_PIN_WRITE_LOGIC@Retval^0,c
  1372                           
  1373                           ;MCAL/GPIO/HAL_GPIO.c: 88:     }
  1374   001158  EF18  F009         	goto	l1543
  1375   00115C                     l1529:
  1376                           
  1377                           ;MCAL/GPIO/HAL_GPIO.c: 92:                 (*LAT_REG[_PIN_CONFIG->PORT] &= ~(((uint8)0x0
      +                          1) << _PIN_CONFIG->PIN));
  1378   00115C  5028               	movf	GPIO_PIN_WRITE_LOGIC@_PIN_CONFIG^0,w,c
  1379   00115E  6ED9               	movwf	fsr2l,c
  1380   001160  6ADA               	clrf	fsr2h,c
  1381   001162  30DF               	rrcf	223,w,c
  1382   001164  32E8               	rrcf	wreg,f,c
  1383   001166  32E8               	rrcf	wreg,f,c
  1384   001168  0B07               	andlw	7
  1385   00116A  6E2A               	movwf	??_GPIO_PIN_WRITE_LOGIC^0,c
  1386   00116C  0E01               	movlw	1
  1387   00116E  6E2B               	movwf	(??_GPIO_PIN_WRITE_LOGIC+1)^0,c
  1388   001170  2A2A               	incf	??_GPIO_PIN_WRITE_LOGIC^0,f,c
  1389   001172  EFBD  F008         	goto	u734
  1390   001176                     u735:
  1391   001176  90D8               	bcf	status,0,c
  1392   001178  362B               	rlcf	(??_GPIO_PIN_WRITE_LOGIC+1)^0,f,c
  1393   00117A                     u734:
  1394   00117A  2E2A               	decfsz	??_GPIO_PIN_WRITE_LOGIC^0,f,c
  1395   00117C  EFBB  F008         	goto	u735
  1396   001180  502B               	movf	(??_GPIO_PIN_WRITE_LOGIC+1)^0,w,c
  1397   001182  0AFF               	xorlw	255
  1398   001184  6E2C               	movwf	(??_GPIO_PIN_WRITE_LOGIC+2)^0,c
  1399   001186  5028               	movf	GPIO_PIN_WRITE_LOGIC@_PIN_CONFIG^0,w,c
  1400   001188  6ED9               	movwf	fsr2l,c
  1401   00118A  6ADA               	clrf	fsr2h,c
  1402   00118C  50DF               	movf	223,w,c
  1403   00118E  0B07               	andlw	7
  1404   001190  0D02               	mullw	2
  1405   001192  50F3               	movf	243,w,c
  1406   001194  0F01               	addlw	low _LAT_REG
  1407   001196  6ED9               	movwf	fsr2l,c
  1408   001198  6ADA               	clrf	fsr2h,c
  1409   00119A  CFDE F02D          	movff	postinc2,??_GPIO_PIN_WRITE_LOGIC+3
  1410   00119E  CFDD F02E          	movff	postdec2,??_GPIO_PIN_WRITE_LOGIC+4
  1411   0011A2  C02D  FFD9         	movff	??_GPIO_PIN_WRITE_LOGIC+3,fsr2l
  1412   0011A6  C02E  FFDA         	movff	??_GPIO_PIN_WRITE_LOGIC+4,fsr2h
  1413   0011AA  502C               	movf	(??_GPIO_PIN_WRITE_LOGIC+2)^0,w,c
  1414   0011AC  16DF               	andwf	indf2,f,c
  1415   0011AE                     l1531:
  1416                           
  1417                           ;MCAL/GPIO/HAL_GPIO.c: 93:                 Retval = E_OK;
  1418   0011AE  0E01               	movlw	1
  1419   0011B0  6E2F               	movwf	GPIO_PIN_WRITE_LOGIC@Retval^0,c
  1420                           
  1421                           ;MCAL/GPIO/HAL_GPIO.c: 94:                 break;
  1422   0011B2  EF18  F009         	goto	l1543
  1423   0011B6                     l1533:
  1424                           
  1425                           ;MCAL/GPIO/HAL_GPIO.c: 96:                 (*LAT_REG[_PIN_CONFIG->PORT] |= (((uint8)0x01
      +                          ) << _PIN_CONFIG->PIN));
  1426   0011B6  5028               	movf	GPIO_PIN_WRITE_LOGIC@_PIN_CONFIG^0,w,c
  1427   0011B8  6ED9               	movwf	fsr2l,c
  1428   0011BA  6ADA               	clrf	fsr2h,c
  1429   0011BC  30DF               	rrcf	223,w,c
  1430   0011BE  32E8               	rrcf	wreg,f,c
  1431   0011C0  32E8               	rrcf	wreg,f,c
  1432   0011C2  0B07               	andlw	7
  1433   0011C4  6E2A               	movwf	??_GPIO_PIN_WRITE_LOGIC^0,c
  1434   0011C6  0E01               	movlw	1
  1435   0011C8  6E2B               	movwf	(??_GPIO_PIN_WRITE_LOGIC+1)^0,c
  1436   0011CA  2A2A               	incf	??_GPIO_PIN_WRITE_LOGIC^0,f,c
  1437   0011CC  EFEA  F008         	goto	u744
  1438   0011D0                     u745:
  1439   0011D0  90D8               	bcf	status,0,c
  1440   0011D2  362B               	rlcf	(??_GPIO_PIN_WRITE_LOGIC+1)^0,f,c
  1441   0011D4                     u744:
  1442   0011D4  2E2A               	decfsz	??_GPIO_PIN_WRITE_LOGIC^0,f,c
  1443   0011D6  EFE8  F008         	goto	u745
  1444   0011DA  5028               	movf	GPIO_PIN_WRITE_LOGIC@_PIN_CONFIG^0,w,c
  1445   0011DC  6ED9               	movwf	fsr2l,c
  1446   0011DE  6ADA               	clrf	fsr2h,c
  1447   0011E0  50DF               	movf	223,w,c
  1448   0011E2  0B07               	andlw	7
  1449   0011E4  0D02               	mullw	2
  1450   0011E6  50F3               	movf	243,w,c
  1451   0011E8  0F01               	addlw	low _LAT_REG
  1452   0011EA  6ED9               	movwf	fsr2l,c
  1453   0011EC  6ADA               	clrf	fsr2h,c
  1454   0011EE  CFDE F02C          	movff	postinc2,??_GPIO_PIN_WRITE_LOGIC+2
  1455   0011F2  CFDD F02D          	movff	postdec2,??_GPIO_PIN_WRITE_LOGIC+3
  1456   0011F6  C02C  FFD9         	movff	??_GPIO_PIN_WRITE_LOGIC+2,fsr2l
  1457   0011FA  C02D  FFDA         	movff	??_GPIO_PIN_WRITE_LOGIC+3,fsr2h
  1458   0011FE  502B               	movf	(??_GPIO_PIN_WRITE_LOGIC+1)^0,w,c
  1459   001200  12DF               	iorwf	indf2,f,c
  1460   001202  EFD7  F008         	goto	l1531
  1461   001206                     l1541:
  1462   001206  5029               	movf	GPIO_PIN_WRITE_LOGIC@LOGIC^0,w,c
  1463   001208  6E2A               	movwf	??_GPIO_PIN_WRITE_LOGIC^0,c
  1464   00120A  6A2B               	clrf	(??_GPIO_PIN_WRITE_LOGIC+1)^0,c
  1465                           
  1466                           ; Switch on 2 bytes has been partitioned into a top level switch of size 1, and 1 sub-sw
      +                          itches
  1467                           ; Switch size 1, requested type "simple"
  1468                           ; Number of cases is 1, Range of values is 0 to 0
  1469                           ; switch strategies available:
  1470                           ; Name         Instructions Cycles
  1471                           ; simple_byte            4     3 (average)
  1472                           ;	Chosen strategy is simple_byte
  1473   00120C  502B               	movf	(??_GPIO_PIN_WRITE_LOGIC+1)^0,w,c
  1474   00120E  0A00               	xorlw	0	; case 0
  1475   001210  B4D8               	btfsc	status,2,c
  1476   001212  EF0D  F009         	goto	l1947
  1477   001216  EFAA  F008         	goto	l1527
  1478   00121A                     l1947:
  1479                           
  1480                           ; Switch size 1, requested type "simple"
  1481                           ; Number of cases is 2, Range of values is 0 to 1
  1482                           ; switch strategies available:
  1483                           ; Name         Instructions Cycles
  1484                           ; simple_byte            7     4 (average)
  1485                           ;	Chosen strategy is simple_byte
  1486   00121A  502A               	movf	??_GPIO_PIN_WRITE_LOGIC^0,w,c
  1487   00121C  0A00               	xorlw	0	; case 0
  1488   00121E  B4D8               	btfsc	status,2,c
  1489   001220  EFAE  F008         	goto	l1529
  1490   001224  0A01               	xorlw	1	; case 1
  1491   001226  B4D8               	btfsc	status,2,c
  1492   001228  EFDB  F008         	goto	l1533
  1493   00122C  EFAA  F008         	goto	l1527
  1494   001230                     l1543:
  1495                           
  1496                           ;MCAL/GPIO/HAL_GPIO.c: 104:     return Retval;
  1497   001230  502F               	movf	GPIO_PIN_WRITE_LOGIC@Retval^0,w,c
  1498   001232  0012               	return		;funcret
  1499   001234                     __end_of_GPIO_PIN_WRITE_LOGIC:
  1500                           	callstack 0
  1501                           
  1502 ;; *************** function _GPIO_PIN_DIRECTION_INITIALIZE *****************
  1503 ;; Defined at:
  1504 ;;		line 29 in file "MCAL/GPIO/HAL_GPIO.c"
  1505 ;; Parameters:    Size  Location     Type
  1506 ;;  _PIN_CONFIG     1    0[COMRAM] PTR const struct .
  1507 ;;		 -> keypad1$KEYPAD_COLUMNS_PINS(4), keypad1$KEYPAD_ROWS_PINS(4), keypad1(8), RELAY_INITIALIZE@pin(1), 
  1508 ;;		 -> LED_INITIALIZE@PIN_OBJ(1), 
  1509 ;; Auto vars:     Size  Location     Type
  1510 ;;  Retval          1    6[COMRAM] enum E3063
  1511 ;; Return value:  Size  Location     Type
  1512 ;;                  1    wreg      enum E3063
  1513 ;; Registers used:
  1514 ;;		wreg, fsr2l, fsr2h, status,2, status,0, prodl, prodh
  1515 ;; Tracked objects:
  1516 ;;		On entry : 0/0
  1517 ;;		On exit  : 0/0
  1518 ;;		Unchanged: 0/0
  1519 ;; Data sizes:     COMRAM   BANK0   BANK1   BANK2   BANK3   BANK4   BANK5   BANK6   BANK7   BANK8   BANK9  BANK10  BANK1
      +1  BANK12  BANK13  BANK14  BANK15
  1520 ;;      Params:         1       0       0       0       0       0       0       0       0       0       0       0       
      +0       0       0       0       0
  1521 ;;      Locals:         1       0       0       0       0       0       0       0       0       0       0       0       
      +0       0       0       0       0
  1522 ;;      Temps:          5       0       0       0       0       0       0       0       0       0       0       0       
      +0       0       0       0       0
  1523 ;;      Totals:         7       0       0       0       0       0       0       0       0       0       0       0       
      +0       0       0       0       0
  1524 ;;Total ram usage:        7 bytes
  1525 ;; Hardware stack levels used: 1
  1526 ;; This function calls:
  1527 ;;		Nothing
  1528 ;; This function is called by:
  1529 ;;		_GPIO_PIN_INITIALIZE
  1530 ;;		_KEYPAD_INITIALIZE
  1531 ;;		_BUTTON_INITIALIZE
  1532 ;; This function uses a non-reentrant model
  1533 ;;
  1534                           
  1535                           	psect	text10
  1536   001012                     __ptext10:
  1537                           	callstack 0
  1538   001012                     _GPIO_PIN_DIRECTION_INITIALIZE:
  1539                           	callstack 26
  1540   001012                     
  1541                           ;MCAL/GPIO/HAL_GPIO.c: 31:     if(((void*)0) == _PIN_CONFIG || _PIN_CONFIG->PIN >= 8){
  1542   001012  5028               	movf	GPIO_PIN_DIRECTION_INITIALIZE@_PIN_CONFIG^0,w,c
  1543   001014  B4D8               	btfsc	status,2,c
  1544   001016  EF0F  F008         	goto	u751
  1545   00101A  EF11  F008         	goto	u750
  1546   00101E                     u751:
  1547   00101E  EF21  F008         	goto	l1555
  1548   001022                     u750:
  1549   001022  5028               	movf	GPIO_PIN_DIRECTION_INITIALIZE@_PIN_CONFIG^0,w,c
  1550   001024  6ED9               	movwf	fsr2l,c
  1551   001026  6ADA               	clrf	fsr2h,c
  1552   001028  30DF               	rrcf	223,w,c
  1553   00102A  32E8               	rrcf	wreg,f,c
  1554   00102C  32E8               	rrcf	wreg,f,c
  1555   00102E  0B07               	andlw	7
  1556   001030  6E29               	movwf	??_GPIO_PIN_DIRECTION_INITIALIZE^0,c
  1557   001032  0E07               	movlw	7
  1558   001034  6429               	cpfsgt	??_GPIO_PIN_DIRECTION_INITIALIZE^0,c
  1559   001036  EF1F  F008         	goto	u761
  1560   00103A  EF21  F008         	goto	u760
  1561   00103E                     u761:
  1562   00103E  EF7A  F008         	goto	l1569
  1563   001042                     u760:
  1564   001042                     l1555:
  1565                           
  1566                           ;MCAL/GPIO/HAL_GPIO.c: 32:         Retval = E_NOT_OK;
  1567   001042  0E00               	movlw	0
  1568   001044  6E2E               	movwf	GPIO_PIN_DIRECTION_INITIALIZE@Retval^0,c
  1569                           
  1570                           ;MCAL/GPIO/HAL_GPIO.c: 33:     }
  1571   001046  EF90  F008         	goto	l1571
  1572   00104A                     l1557:
  1573                           
  1574                           ;MCAL/GPIO/HAL_GPIO.c: 37:                 (*TRIS_REG[_PIN_CONFIG->PORT] &= ~(((uint8)0x
      +                          01) << _PIN_CONFIG->PIN));
  1575   00104A  5028               	movf	GPIO_PIN_DIRECTION_INITIALIZE@_PIN_CONFIG^0,w,c
  1576   00104C  6ED9               	movwf	fsr2l,c
  1577   00104E  6ADA               	clrf	fsr2h,c
  1578   001050  30DF               	rrcf	223,w,c
  1579   001052  32E8               	rrcf	wreg,f,c
  1580   001054  32E8               	rrcf	wreg,f,c
  1581   001056  0B07               	andlw	7
  1582   001058  6E29               	movwf	??_GPIO_PIN_DIRECTION_INITIALIZE^0,c
  1583   00105A  0E01               	movlw	1
  1584   00105C  6E2A               	movwf	(??_GPIO_PIN_DIRECTION_INITIALIZE+1)^0,c
  1585   00105E  2A29               	incf	??_GPIO_PIN_DIRECTION_INITIALIZE^0,f,c
  1586   001060  EF34  F008         	goto	u774
  1587   001064                     u775:
  1588   001064  90D8               	bcf	status,0,c
  1589   001066  362A               	rlcf	(??_GPIO_PIN_DIRECTION_INITIALIZE+1)^0,f,c
  1590   001068                     u774:
  1591   001068  2E29               	decfsz	??_GPIO_PIN_DIRECTION_INITIALIZE^0,f,c
  1592   00106A  EF32  F008         	goto	u775
  1593   00106E  502A               	movf	(??_GPIO_PIN_DIRECTION_INITIALIZE+1)^0,w,c
  1594   001070  0AFF               	xorlw	255
  1595   001072  6E2B               	movwf	(??_GPIO_PIN_DIRECTION_INITIALIZE+2)^0,c
  1596   001074  5028               	movf	GPIO_PIN_DIRECTION_INITIALIZE@_PIN_CONFIG^0,w,c
  1597   001076  6ED9               	movwf	fsr2l,c
  1598   001078  6ADA               	clrf	fsr2h,c
  1599   00107A  50DF               	movf	223,w,c
  1600   00107C  0B07               	andlw	7
  1601   00107E  0D02               	mullw	2
  1602   001080  50F3               	movf	243,w,c
  1603   001082  0F15               	addlw	low _TRIS_REG
  1604   001084  6ED9               	movwf	fsr2l,c
  1605   001086  6ADA               	clrf	fsr2h,c
  1606   001088  CFDE F02C          	movff	postinc2,??_GPIO_PIN_DIRECTION_INITIALIZE+3
  1607   00108C  CFDD F02D          	movff	postdec2,??_GPIO_PIN_DIRECTION_INITIALIZE+4
  1608   001090  C02C  FFD9         	movff	??_GPIO_PIN_DIRECTION_INITIALIZE+3,fsr2l
  1609   001094  C02D  FFDA         	movff	??_GPIO_PIN_DIRECTION_INITIALIZE+4,fsr2h
  1610   001098  502B               	movf	(??_GPIO_PIN_DIRECTION_INITIALIZE+2)^0,w,c
  1611   00109A  16DF               	andwf	indf2,f,c
  1612   00109C                     l1559:
  1613                           
  1614                           ;MCAL/GPIO/HAL_GPIO.c: 38:                 Retval = E_OK;
  1615   00109C  0E01               	movlw	1
  1616   00109E  6E2E               	movwf	GPIO_PIN_DIRECTION_INITIALIZE@Retval^0,c
  1617                           
  1618                           ;MCAL/GPIO/HAL_GPIO.c: 39:                 break;
  1619   0010A0  EF90  F008         	goto	l1571
  1620   0010A4                     l1561:
  1621                           
  1622                           ;MCAL/GPIO/HAL_GPIO.c: 41:                 (*TRIS_REG[_PIN_CONFIG->PORT] |= (((uint8)0x0
      +                          1) << _PIN_CONFIG->PIN));
  1623   0010A4  5028               	movf	GPIO_PIN_DIRECTION_INITIALIZE@_PIN_CONFIG^0,w,c
  1624   0010A6  6ED9               	movwf	fsr2l,c
  1625   0010A8  6ADA               	clrf	fsr2h,c
  1626   0010AA  30DF               	rrcf	223,w,c
  1627   0010AC  32E8               	rrcf	wreg,f,c
  1628   0010AE  32E8               	rrcf	wreg,f,c
  1629   0010B0  0B07               	andlw	7
  1630   0010B2  6E29               	movwf	??_GPIO_PIN_DIRECTION_INITIALIZE^0,c
  1631   0010B4  0E01               	movlw	1
  1632   0010B6  6E2A               	movwf	(??_GPIO_PIN_DIRECTION_INITIALIZE+1)^0,c
  1633   0010B8  2A29               	incf	??_GPIO_PIN_DIRECTION_INITIALIZE^0,f,c
  1634   0010BA  EF61  F008         	goto	u784
  1635   0010BE                     u785:
  1636   0010BE  90D8               	bcf	status,0,c
  1637   0010C0  362A               	rlcf	(??_GPIO_PIN_DIRECTION_INITIALIZE+1)^0,f,c
  1638   0010C2                     u784:
  1639   0010C2  2E29               	decfsz	??_GPIO_PIN_DIRECTION_INITIALIZE^0,f,c
  1640   0010C4  EF5F  F008         	goto	u785
  1641   0010C8  5028               	movf	GPIO_PIN_DIRECTION_INITIALIZE@_PIN_CONFIG^0,w,c
  1642   0010CA  6ED9               	movwf	fsr2l,c
  1643   0010CC  6ADA               	clrf	fsr2h,c
  1644   0010CE  50DF               	movf	223,w,c
  1645   0010D0  0B07               	andlw	7
  1646   0010D2  0D02               	mullw	2
  1647   0010D4  50F3               	movf	243,w,c
  1648   0010D6  0F15               	addlw	low _TRIS_REG
  1649   0010D8  6ED9               	movwf	fsr2l,c
  1650   0010DA  6ADA               	clrf	fsr2h,c
  1651   0010DC  CFDE F02B          	movff	postinc2,??_GPIO_PIN_DIRECTION_INITIALIZE+2
  1652   0010E0  CFDD F02C          	movff	postdec2,??_GPIO_PIN_DIRECTION_INITIALIZE+3
  1653   0010E4  C02B  FFD9         	movff	??_GPIO_PIN_DIRECTION_INITIALIZE+2,fsr2l
  1654   0010E8  C02C  FFDA         	movff	??_GPIO_PIN_DIRECTION_INITIALIZE+3,fsr2h
  1655   0010EC  502A               	movf	(??_GPIO_PIN_DIRECTION_INITIALIZE+1)^0,w,c
  1656   0010EE  12DF               	iorwf	indf2,f,c
  1657   0010F0  EF4E  F008         	goto	l1559
  1658   0010F4                     l1569:
  1659   0010F4  5028               	movf	GPIO_PIN_DIRECTION_INITIALIZE@_PIN_CONFIG^0,w,c
  1660   0010F6  6ED9               	movwf	fsr2l,c
  1661   0010F8  6ADA               	clrf	fsr2h,c
  1662   0010FA  BCDF               	btfsc	indf2,6,c
  1663   0010FC  EF82  F008         	goto	u791
  1664   001100  EF85  F008         	goto	u790
  1665   001104                     u791:
  1666   001104  0E01               	movlw	1
  1667   001106  EF86  F008         	goto	u796
  1668   00110A                     u790:
  1669   00110A  0E00               	movlw	0
  1670   00110C                     u796:
  1671                           
  1672                           ; Switch size 1, requested type "simple"
  1673                           ; Number of cases is 2, Range of values is 0 to 1
  1674                           ; switch strategies available:
  1675                           ; Name         Instructions Cycles
  1676                           ; simple_byte            7     4 (average)
  1677                           ;	Chosen strategy is simple_byte
  1678   00110C  0A00               	xorlw	0	; case 0
  1679   00110E  B4D8               	btfsc	status,2,c
  1680   001110  EF25  F008         	goto	l1557
  1681   001114  0A01               	xorlw	1	; case 1
  1682   001116  B4D8               	btfsc	status,2,c
  1683   001118  EF52  F008         	goto	l1561
  1684   00111C  EF21  F008         	goto	l1555
  1685   001120                     l1571:
  1686                           
  1687                           ;MCAL/GPIO/HAL_GPIO.c: 49:     return Retval;
  1688   001120  502E               	movf	GPIO_PIN_DIRECTION_INITIALIZE@Retval^0,w,c
  1689   001122  0012               	return		;funcret
  1690   001124                     __end_of_GPIO_PIN_DIRECTION_INITIALIZE:
  1691                           	callstack 0
  1692                           
  1693                           	psect	rparam
  1694   000000                     
  1695                           	psect	config
  1696                           
  1697                           ; Padding undefined space
  1698   300000                     	org	3145728
  1699   300000  FF                 	db	255
  1700                           
  1701                           ;Config register CONFIG1H @ 0x300001
  1702                           ;	Oscillator Selection bits
  1703                           ;	FOSC = HS, HS oscillator
  1704                           ;	Fail-Safe Clock Monitor Enable bit
  1705                           ;	FCMEN = OFF, Fail-Safe Clock Monitor disabled
  1706                           ;	Internal/External Oscillator Switchover bit
  1707                           ;	IESO = OFF, Oscillator Switchover mode disabled
  1708   300001                     	org	3145729
  1709   300001  02                 	db	2
  1710                           
  1711                           ;Config register CONFIG2L @ 0x300002
  1712                           ;	Power-up Timer Enable bit
  1713                           ;	PWRTEN = OFF, PWRT disabled
  1714                           ;	Brown-out Reset Enable bits
  1715                           ;	BOREN = OFF, Brown-out Reset disabled in hardware and software
  1716                           ;	Brown Out Reset Voltage bits
  1717                           ;	BORV = 18, VBOR set to 1.8 V nominal
  1718   300002                     	org	3145730
  1719   300002  19                 	db	25
  1720                           
  1721                           ;Config register CONFIG2H @ 0x300003
  1722                           ;	Watchdog Timer Enable bit
  1723                           ;	WDTEN = OFF, WDT is controlled by SWDTEN bit of the WDTCON register
  1724                           ;	Watchdog Timer Postscale Select bits
  1725                           ;	WDTPS = 32768, 1:32768
  1726   300003                     	org	3145731
  1727   300003  1E                 	db	30
  1728                           
  1729                           ; Padding undefined space
  1730   300004                     	org	3145732
  1731   300004  FF                 	db	255
  1732                           
  1733                           ;Config register CONFIG3H @ 0x300005
  1734                           ;	CCP2 MUX bit
  1735                           ;	CCP2MX = PORTC, CCP2 input/output is multiplexed with RC1
  1736                           ;	PORTB A/D Enable bit
  1737                           ;	PBADEN = OFF, PORTB<4:0> pins are configured as digital I/O on Reset
  1738                           ;	Low-Power Timer1 Oscillator Enable bit
  1739                           ;	LPT1OSC = OFF, Timer1 configured for higher power operation
  1740                           ;	HFINTOSC Fast Start-up
  1741                           ;	HFOFST = ON, HFINTOSC starts clocking the CPU without waiting for the oscillator to st
      +                          ablize.
  1742                           ;	MCLR Pin Enable bit
  1743                           ;	MCLRE = ON, MCLR pin enabled; RE3 input pin disabled
  1744   300005                     	org	3145733
  1745   300005  89                 	db	137
  1746                           
  1747                           ;Config register CONFIG4L @ 0x300006
  1748                           ;	Stack Full/Underflow Reset Enable bit
  1749                           ;	STVREN = ON, Stack full/underflow will cause Reset
  1750                           ;	Single-Supply ICSP Enable bit
  1751                           ;	LVP = OFF, Single-Supply ICSP disabled
  1752                           ;	Extended Instruction Set Enable bit
  1753                           ;	XINST = OFF, Instruction set extension and Indexed Addressing mode disabled (Legacy mo
      +                          de)
  1754                           ;	Background Debugger Enable bit
  1755                           ;	DEBUG = 0x1, unprogrammed default
  1756   300006                     	org	3145734
  1757   300006  81                 	db	129
  1758                           
  1759                           ; Padding undefined space
  1760   300007                     	org	3145735
  1761   300007  FF                 	db	255
  1762                           
  1763                           ;Config register CONFIG5L @ 0x300008
  1764                           ;	Code Protection Block 0
  1765                           ;	CP0 = OFF, Block 0 (000800-003FFFh) not code-protected
  1766                           ;	Code Protection Block 1
  1767                           ;	CP1 = OFF, Block 1 (004000-007FFFh) not code-protected
  1768                           ;	Code Protection Block 2
  1769                           ;	CP2 = OFF, Block 2 (008000-00BFFFh) not code-protected
  1770                           ;	Code Protection Block 3
  1771                           ;	CP3 = OFF, Block 3 (00C000-00FFFFh) not code-protected
  1772   300008                     	org	3145736
  1773   300008  0F                 	db	15
  1774                           
  1775                           ;Config register CONFIG5H @ 0x300009
  1776                           ;	Boot Block Code Protection bit
  1777                           ;	CPB = OFF, Boot block (000000-0007FFh) not code-protected
  1778                           ;	Data EEPROM Code Protection bit
  1779                           ;	CPD = OFF, Data EEPROM not code-protected
  1780   300009                     	org	3145737
  1781   300009  C0                 	db	192
  1782                           
  1783                           ;Config register CONFIG6L @ 0x30000A
  1784                           ;	Write Protection Block 0
  1785                           ;	WRT0 = OFF, Block 0 (000800-003FFFh) not write-protected
  1786                           ;	Write Protection Block 1
  1787                           ;	WRT1 = OFF, Block 1 (004000-007FFFh) not write-protected
  1788                           ;	Write Protection Block 2
  1789                           ;	WRT2 = OFF, Block 2 (008000-00BFFFh) not write-protected
  1790                           ;	Write Protection Block 3
  1791                           ;	WRT3 = OFF, Block 3 (00C000h-00FFFFh) not write-protected
  1792   30000A                     	org	3145738
  1793   30000A  0F                 	db	15
  1794                           
  1795                           ;Config register CONFIG6H @ 0x30000B
  1796                           ;	Configuration Register Write Protection bit
  1797                           ;	WRTC = OFF, Configuration registers (300000-3000FFh) not write-protected
  1798                           ;	Boot Block Write Protection bit
  1799                           ;	WRTB = OFF, Boot Block (000000-0007FFh) not write-protected
  1800                           ;	Data EEPROM Write Protection bit
  1801                           ;	WRTD = OFF, Data EEPROM not write-protected
  1802   30000B                     	org	3145739
  1803   30000B  E0                 	db	224
  1804                           
  1805                           ;Config register CONFIG7L @ 0x30000C
  1806                           ;	Table Read Protection Block 0
  1807                           ;	EBTR0 = OFF, Block 0 (000800-003FFFh) not protected from table reads executed in other
      +                           blocks
  1808                           ;	Table Read Protection Block 1
  1809                           ;	EBTR1 = OFF, Block 1 (004000-007FFFh) not protected from table reads executed in other
      +                           blocks
  1810                           ;	Table Read Protection Block 2
  1811                           ;	EBTR2 = OFF, Block 2 (008000-00BFFFh) not protected from table reads executed in other
      +                           blocks
  1812                           ;	Table Read Protection Block 3
  1813                           ;	EBTR3 = OFF, Block 3 (00C000-00FFFFh) not protected from table reads executed in other
      +                           blocks
  1814   30000C                     	org	3145740
  1815   30000C  0F                 	db	15
  1816                           
  1817                           ;Config register CONFIG7H @ 0x30000D
  1818                           ;	Boot Block Table Read Protection bit
  1819                           ;	EBTRB = OFF, Boot Block (000000-0007FFh) not protected from table reads executed in ot
      +                          her blocks
  1820   30000D                     	org	3145741
  1821   30000D  40                 	db	64
  1822                           tosu	equ	0xFFF
  1823                           tosh	equ	0xFFE
  1824                           tosl	equ	0xFFD
  1825                           stkptr	equ	0xFFC
  1826                           pclatu	equ	0xFFB
  1827                           pclath	equ	0xFFA
  1828                           pcl	equ	0xFF9
  1829                           tblptru	equ	0xFF8
  1830                           tblptrh	equ	0xFF7
  1831                           tblptrl	equ	0xFF6
  1832                           tablat	equ	0xFF5
  1833                           prodh	equ	0xFF4
  1834                           prodl	equ	0xFF3
  1835                           indf0	equ	0xFEF
  1836                           postinc0	equ	0xFEE
  1837                           postdec0	equ	0xFED
  1838                           preinc0	equ	0xFEC
  1839                           plusw0	equ	0xFEB
  1840                           fsr0h	equ	0xFEA
  1841                           fsr0l	equ	0xFE9
  1842                           wreg	equ	0xFE8
  1843                           indf1	equ	0xFE7
  1844                           postinc1	equ	0xFE6
  1845                           postdec1	equ	0xFE5
  1846                           preinc1	equ	0xFE4
  1847                           plusw1	equ	0xFE3
  1848                           fsr1h	equ	0xFE2
  1849                           fsr1l	equ	0xFE1
  1850                           bsr	equ	0xFE0
  1851                           indf2	equ	0xFDF
  1852                           postinc2	equ	0xFDE
  1853                           postdec2	equ	0xFDD
  1854                           preinc2	equ	0xFDC
  1855                           plusw2	equ	0xFDB
  1856                           fsr2h	equ	0xFDA
  1857                           fsr2l	equ	0xFD9
  1858                           status	equ	0xFD8

Data Sizes:
    Strings     0
    Constant    16
    Data        39
    BSS         8
    Persistent  1
    Stack       0

Auto Spaces:
    Space          Size  Autos    Used
    COMRAM           95     19      67
    BANK0           160      0       0
    BANK1           256      0       0
    BANK2           256      0       0
    BANK3           256      0       0
    BANK4           256      0       0
    BANK5           256      0       0
    BANK6           256      0       0
    BANK7           256      0       0
    BANK8           256      0       0
    BANK9           256      0       0
    BANK10          256      0       0
    BANK11          256      0       0
    BANK12          256      0       0
    BANK13          256      0       0
    BANK14          256      0       0
    BANK15           96      0       0

Pointer List with Targets:

    GPIO_PIN_DIRECTION_INITIALIZE@_PIN_CONFIG	PTR const struct . size(1) Largest target is 8
		 -> keypad1(COMRAM[8]), keypad1$KEYPAD_COLUMNS_PINS(COMRAM[4]), keypad1$KEYPAD_ROWS_PINS(COMRAM[4]), LED_INITIALIZE@PIN_OBJ(COMRAM[1]), 
		 -> RELAY_INITIALIZE@pin(COMRAM[1]), 

    GPIO_PIN_INITIALIZE@_PIN_CONFIG	PTR const struct . size(1) Largest target is 8
		 -> keypad1(COMRAM[8]), keypad1$KEYPAD_ROWS_PINS(COMRAM[4]), LED_INITIALIZE@PIN_OBJ(COMRAM[1]), RELAY_INITIALIZE@pin(COMRAM[1]), 

    GPIO_PIN_READ_LOGIC@_PIN_CONFIG	PTR const struct . size(1) Largest target is 8
		 -> keypad1(COMRAM[8]), keypad1$KEYPAD_COLUMNS_PINS(COMRAM[4]), 

    GPIO_PIN_READ_LOGIC@LOGIC	PTR enum E3067 size(1) Largest target is 1
		 -> BUTTON_READ_STATUS@Btn_Log(COMRAM[1]), KEYPAD_GET_VALUE@COLUMN_STATE(COMRAM[1]), 

    GPIO_PIN_WRITE_LOGIC@_PIN_CONFIG	PTR const struct . size(1) Largest target is 8
		 -> keypad1(COMRAM[8]), keypad1$KEYPAD_ROWS_PINS(COMRAM[4]), LED_INITIALIZE@PIN_OBJ(COMRAM[1]), LED_Turn_OFF@PIN_OBJ(COMRAM[1]), 
		 -> LED_Turn_ON@PIN_OBJ(COMRAM[1]), RELAY_INITIALIZE@pin(COMRAM[1]), RELAY_TURN_OFF@pin(COMRAM[1]), RELAY_TURN_ON@pin(COMRAM[1]), 

    KEYPAD_GET_VALUE@keypad	PTR const struct . size(1) Largest target is 8
		 -> keypad1(COMRAM[8]), 

    KEYPAD_GET_VALUE@value	PTR unsigned char  size(1) Largest target is 1
		 -> val(COMRAM[1]), 

    KEYPAD_INITIALIZE@keypad	PTR const struct . size(1) Largest target is 8
		 -> keypad1(COMRAM[8]), 

    LAT_REG	PTR volatile unsigned char [5] size(2) Largest target is 1
		 -> LATA(BITBIGSFRlhl[1]), LATB(BITBIGSFRlhh[1]), LATC(BITBIGSFRlhh[1]), LATD(BITBIGSFRlhh[1]), 
		 -> LATE(BITBIGSFRlhh[1]), 

    LED_INITIALIZE@led	PTR const struct . size(1) Largest target is 1
		 -> led1(COMRAM[1]), 

    LED_Turn_ON@led	PTR const struct . size(1) Largest target is 1
		 -> led1(COMRAM[1]), 

    PORT_REG	PTR volatile unsigned char [5] size(2) Largest target is 1
		 -> PORTA(BITBIGSFRll[1]), PORTB(BITBIGSFRlhl[1]), PORTC(BITBIGSFRlhl[1]), PORTD(BITBIGSFRlhl[1]), 
		 -> PORTE(BITBIGSFRlhl[1]), 

    TRIS_REG	PTR volatile unsigned char [5] size(2) Largest target is 1
		 -> TRISA(BITBIGSFRll[1]), TRISB(BITBIGSFRh[1]), TRISC(BITBIGSFRh[1]), TRISD(BITBIGSFRh[1]), 
		 -> TRISE(BITBIGSFRh[1]), 


Critical Paths under _main in COMRAM

    _main->_KEYPAD_GET_VALUE
    _LED_Turn_ON->_GPIO_PIN_WRITE_LOGIC
    _KEYPAD_GET_VALUE->_GPIO_PIN_WRITE_LOGIC
    _ECU_LAYER_INITIALIZE->_KEYPAD_INITIALIZE
    _LED_INITIALIZE->_GPIO_PIN_INITIALIZE
    _KEYPAD_INITIALIZE->_GPIO_PIN_INITIALIZE
    _GPIO_PIN_INITIALIZE->_GPIO_PIN_WRITE_LOGIC

Critical Paths under _main in BANK0

    None.

Critical Paths under _main in BANK1

    None.

Critical Paths under _main in BANK2

    None.

Critical Paths under _main in BANK3

    None.

Critical Paths under _main in BANK4

    None.

Critical Paths under _main in BANK5

    None.

Critical Paths under _main in BANK6

    None.

Critical Paths under _main in BANK7

    None.

Critical Paths under _main in BANK8

    None.

Critical Paths under _main in BANK9

    None.

Critical Paths under _main in BANK10

    None.

Critical Paths under _main in BANK11

    None.

Critical Paths under _main in BANK12

    None.

Critical Paths under _main in BANK13

    None.

Critical Paths under _main in BANK14

    None.

Critical Paths under _main in BANK15

    None.

Call Graph Tables:

 ---------------------------------------------------------------------------------
 (Depth) Function   	        Calls       Base Space   Used Autos Params    Refs
 ---------------------------------------------------------------------------------
 (0) _main                                                 0     0      0   13469
              _Application_intialize
                   _KEYPAD_GET_VALUE
                        _LED_Turn_ON
 ---------------------------------------------------------------------------------
 (1) _LED_Turn_ON                                          4     3      1    2530
                                              8 COMRAM     4     3      1
               _GPIO_PIN_WRITE_LOGIC
 ---------------------------------------------------------------------------------
 (1) _KEYPAD_GET_VALUE                                    11     9      2    3376
                                              8 COMRAM    11     9      2
                _GPIO_PIN_READ_LOGIC
               _GPIO_PIN_WRITE_LOGIC
 ---------------------------------------------------------------------------------
 (2) _GPIO_PIN_READ_LOGIC                                  7     5      2     461
                                              0 COMRAM     7     5      2
 ---------------------------------------------------------------------------------
 (1) _Application_intialize                                0     0      0    7563
               _ECU_LAYER_INITIALIZE
 ---------------------------------------------------------------------------------
 (2) _ECU_LAYER_INITIALIZE                                 1     1      0    7563
                  _KEYPAD_INITIALIZE
                     _LED_INITIALIZE
 ---------------------------------------------------------------------------------
 (3) _LED_INITIALIZE                                       4     3      1    3538
                                             11 COMRAM     4     3      1
                _GPIO_PIN_INITIALIZE
 ---------------------------------------------------------------------------------
 (3) _KEYPAD_INITIALIZE                                    6     5      1    4022
                                             11 COMRAM     6     5      1
      _GPIO_PIN_DIRECTION_INITIALIZE
                _GPIO_PIN_INITIALIZE
 ---------------------------------------------------------------------------------
 (4) _GPIO_PIN_INITIALIZE                                  3     2      1    3309
                                              8 COMRAM     3     2      1
      _GPIO_PIN_DIRECTION_INITIALIZE
               _GPIO_PIN_WRITE_LOGIC
 ---------------------------------------------------------------------------------
 (2) _GPIO_PIN_WRITE_LOGIC                                 8     6      2    2309
                                              0 COMRAM     8     6      2
 ---------------------------------------------------------------------------------
 (5) _GPIO_PIN_DIRECTION_INITIALIZE                        7     6      1     409
                                              0 COMRAM     7     6      1
 ---------------------------------------------------------------------------------
 Estimated maximum stack depth 5
 ---------------------------------------------------------------------------------

 Call Graph Graphs:

 _main (ROOT)
   _Application_intialize
     _ECU_LAYER_INITIALIZE
       _KEYPAD_INITIALIZE
         _GPIO_PIN_DIRECTION_INITIALIZE
         _GPIO_PIN_INITIALIZE
           _GPIO_PIN_DIRECTION_INITIALIZE
           _GPIO_PIN_WRITE_LOGIC
       _LED_INITIALIZE
         _GPIO_PIN_INITIALIZE
   _KEYPAD_GET_VALUE
     _GPIO_PIN_READ_LOGIC
     _GPIO_PIN_WRITE_LOGIC
   _LED_Turn_ON
     _GPIO_PIN_WRITE_LOGIC

 Address spaces:
Name               Size   Autos  Total    Cost      Usage
BIGRAM             F5F      0       0      41        0.0%
EEDATA             400      0       0       0        0.0%
BITBANK14          100      0       0      32        0.0%
BANK14             100      0       0      33        0.0%
BITBANK13          100      0       0      30        0.0%
BANK13             100      0       0      31        0.0%
BITBANK12          100      0       0      28        0.0%
BANK12             100      0       0      29        0.0%
BITBANK11          100      0       0      26        0.0%
BANK11             100      0       0      27        0.0%
BITBANK10          100      0       0      24        0.0%
BANK10             100      0       0      25        0.0%
BITBANK9           100      0       0      22        0.0%
BANK9              100      0       0      23        0.0%
BITBANK8           100      0       0      20        0.0%
BANK8              100      0       0      21        0.0%
BITBANK7           100      0       0      18        0.0%
BANK7              100      0       0      19        0.0%
BITBANK6           100      0       0      16        0.0%
BANK6              100      0       0      17        0.0%
BITBANK5           100      0       0      14        0.0%
BANK5              100      0       0      15        0.0%
BITBANK4           100      0       0      12        0.0%
BANK4              100      0       0      13        0.0%
BITBANK3           100      0       0      10        0.0%
BANK3              100      0       0      11        0.0%
BITBANK2           100      0       0       8        0.0%
BANK2              100      0       0       9        0.0%
BITBANK1           100      0       0       6        0.0%
BANK1              100      0       0       7        0.0%
BITBANK0            A0      0       0       4        0.0%
BANK0               A0      0       0       5        0.0%
BITBIGSFRh          69      0       0      36        0.0%
BITBANK15           60      0       0      34        0.0%
BANK15              60      0       0      35        0.0%
BITCOMRAM           5F      0       0       0        0.0%
COMRAM              5F     13      43       1       70.5%
BITBIGSFRll         20      0       0      39        0.0%
BITBIGSFRlhh         4      0       0      37        0.0%
BITBIGSFRlhl         4      0       0      38        0.0%
BIGSFR               0      0       0     200        0.0%
BITSFR               0      0       0     200        0.0%
SFR                  0      0       0     200        0.0%
STACK                0      0       0       2        0.0%
NULL                 0      0       0       0        0.0%
ABS                  0      0      43      40        0.0%
DATA                 0      0      43       3        0.0%
CODE                 0      0       0       0        0.0%


Microchip Technology PIC18 Macro Assembler V2.46 build 20240104201356 
Symbol Table                                                                                   Tue Oct 01 19:48:14 2024

                     ??_KEYPAD_INITIALIZE 0034                                        l81 1548  
                                      l84 147A                                        l77 14F0  
                                      l88 14D6                    ??_GPIO_PIN_WRITE_LOGIC 002A  
                                     l201 13DC                                       l215 15A6  
                                     l306 1338                                       l317 164C  
                                     l175 1122                                       l272 1652  
                                     l194 1232                                       l291 1460  
                                     u710 1134                                       u711 1130  
                                     u720 1154                                       u800 155A  
                                     u721 1150                                       u801 1556  
                                     u810 157A                                       u811 1576  
                                     u820 14E8                                       u821 14E4  
                                     u750 1022                                       u734 117A  
                                     u910 1472                                       u751 101E  
                                     u735 1176                                       u911 146E  
                                     u760 1042                                       u744 11D4  
                                     u840 13EE                                       u904 13CA  
                                     u761 103E                                       u745 11D0  
                                     u841 13EA                                       u905 13C6  
                                     u850 1428                                       u930 1244  
                                     u851 1424                                       u835 153A  
                                     u931 1240                                       u860 145E  
                                     u940 1254                                       u861 145A  
                                     u837 153C                                       u941 1250  
                                     u925 14C4                                       u790 110A  
                                     u774 1068                                       u870 134A  
                                     u950 129E                                       u791 1104  
                                     u775 1064                                       u871 1346  
                                     u951 129A                                       u927 14C6  
                                     u784 10C2                                       u880 135A  
                                     u960 12D6                                       u785 10BE  
                                     u881 1356                                       u961 12D2  
                                     u890 137A                                       u970 1316  
                                     u891 1376                                       u971 1312  
                                     u796 110C                                       u980 1336  
                                     u981 1332                                       _Ret 0043  
                                     _val 0042                                       wreg 0FE8  
                                    l1601 1546                                      l1531 11AE  
                                    l1523 1124                                      l1533 11B6  
                                    l1541 1206                                      l1525 1134  
                                    l1621 1428                                      l1605 13DE  
                                    l1701 129E                                      l1551 1012  
                                    l1543 1230                                      l1527 1154  
                                    l1631 1442                                      l1615 13FE  
                                    l1607 13EE                                      l1711 12C6  
                                    l1703 12AC                                      l1561 10A4  
                                    l1553 1022                                      l1529 115C  
                                    l1617 1408                                      l1633 145E  
                                    l1609 13F6                                      l1641 135A  
                                    l1721 131A                                      l1713 12D6  
                                    l1571 1120                                      l1555 1042  
                                    l1627 1430                                      l1619 140C  
                                    l1643 137A                                      l1715 12F6  
                                    l1723 1336                                      l1557 104A  
                                    l1581 1582                                      l1629 143E  
                                    l1653 163C                                      l1645 1382  
                                    l1637 133A                                      l1717 12FA  
                                    l1709 12B4                                      l1661 1472  
                                    l1559 109C                                      l1583 15A0  
                                    l1575 154A                                      l1591 14E8  
                                    l1655 163C                                      l1647 13D6  
                                    l1639 134A                                      l1719 1316  
                                    l1663 147E                                      l1671 14D4  
                                    l1569 10F4                                      l1585 15A4  
                                    l1577 155A                                      l1593 14F4  
                                    l1657 1644                                      l1649 13DA  
                                    l1681 1254                                      l1665 14B4  
                                    l1579 157A                                      l1595 152A  
                                    l1675 164E                                      l1683 125C  
                                    l1667 14B6                                      l1659 1462  
                                    l1597 152C                                      l1589 14D8  
                                    l1677 1234                                      l1669 14C6  
                                    l1941 1602                                      l1599 153C  
                                    l1695 1270                                      l1679 1244  
                                    l1935 15DE                                      l1697 127E  
                                    l1689 1268                                      l1937 15E2  
                                    l1947 121A                                      l1699 1282  
                                    l1939 15F0                 __end_of_KEYPAD_INITIALIZE 1462  
                                    u1240 1602                                      u1241 15FE  
                                    _LATA 0F89                                      _LATB 0F8A  
                                    _LATC 0F8B                                      _LATD 0F8C  
                                    _LATE 0F8D                       LED_INITIALIZE@F3148 0041  
                            ?_LED_Turn_ON 0030                                      _led1 0027  
                                    _main 15DE                                      fsr1h 0FE2  
                                    fsr2h 0FDA                                      indf1 0FE7  
                                    indf2 0FDF                                      fsr1l 0FE1  
                                    fsr2l 0FD9                                      prodl 0FF3  
                                    start 0004                            LED_Turn_ON@led 0030  
                           _KEYPAD_VALUES 1001                              ___param_bank 0000  
          GPIO_PIN_READ_LOGIC@_PIN_CONFIG 0028              KEYPAD_GET_VALUE@COLUMN_STATE 0034  
                                   ?_main 0028                                     _PORTA 0F80  
                                   _PORTB 0F81                                     _PORTC 0F82  
                                   _PORTD 0F83                                     _PORTE 0F84  
                                   _TRISA 0F92                                     _TRISB 0F93  
                                   _TRISC 0F94                                     _TRISD 0F95  
                                   _TRISE 0F96                 GPIO_PIN_READ_LOGIC@Retval 002E  
                  ?_Application_intialize 0028                                     tablat 0FF5  
                                   status 0FD8                      LED_INITIALIZE@Retval 0035  
                         __initialization 15A8                              __end_of_main 1614  
            __end_of_ECU_LAYER_INITIALIZE 164E                                    ??_main 003B  
                           __activetblptr 0002                                    clear_0 15CE  
                                  isa$std 0001                          LED_Turn_ON@F3153 0040  
                            __pdataCOMRAM 0001                     LED_INITIALIZE@PIN_OBJ 0036  
                            __mediumconst 0000                                    tblptrh 0FF7  
                                  tblptrl 0FF6                                    tblptru 0FF8  
                        ??_LED_INITIALIZE 0034                                __accesstop 0060  
                 __end_of__initialization 15D4                             ___rparam_used 0001  
                   KEYPAD_GET_VALUE@value 0031                         LED_INITIALIZE@led 0033  
                          __pcstackCOMRAM 0028                       _GPIO_PIN_INITIALIZE 154A  
          ?_GPIO_PIN_DIRECTION_INITIALIZE 0028                       _GPIO_PIN_READ_LOGIC 133A  
                    ?_GPIO_PIN_INITIALIZE 0030                      _ECU_LAYER_INITIALIZE 163C  
                              __pnvCOMRAM 0043                      ?_GPIO_PIN_READ_LOGIC 0028  
                                 _LAT_REG 0001                   ??_Application_intialize 0039  
                   ??_GPIO_PIN_INITIALIZE 0031                     ?_ECU_LAYER_INITIALIZE 0028  
                     RELAY_TURN_OFF@F3158 003B                     ??_GPIO_PIN_READ_LOGIC 002A  
                                 __Hparam 0000                                   __Lparam 0000  
                            __psmallconst 1000                                   __pcinit 15A8  
                                 __ramtop 1000                                   __ptext0 15DE  
                                 __ptext1 1462                                   __ptext2 1234  
                                 __ptext3 133A                                   __ptext4 164E  
                                 __ptext5 163C                                   __ptext6 14D8  
                                 __ptext7 13DE                                   __ptext8 154A  
                                 __ptext9 1124                                   _keypad1 001F  
                       LED_Turn_OFF@F3158 003F                      end_of_initialization 15D4  
                           __Lmediumconst 0000                                   postdec1 0FE5  
                                 postdec2 0FDD                                   postinc0 0FEE  
                                 postinc1 0FE6                                   postinc2 0FDE  
                       LED_Turn_ON@Retval 0032                          _KEYPAD_GET_VALUE 1234  
                  KEYPAD_GET_VALUE@Retval 0033                    ??_ECU_LAYER_INITIALIZE 0039  
          GPIO_PIN_INITIALIZE@_PIN_CONFIG 0030                    KEYPAD_GET_VALUE@keypad 0030  
                      KEYPAD_GET_VALUE@c1 0039                        KEYPAD_GET_VALUE@r1 0037  
                      KEYPAD_GET_VALUE@r2 0035                             __pidataCOMRAM 1614  
                     start_initialization 15A8           ??_GPIO_PIN_DIRECTION_INITIALIZE 0029  
              GPIO_PIN_WRITE_LOGIC@Retval 002F                             ??_LED_Turn_ON 0031  
                      KEYPAD_INITIALIZE@c 0037                        KEYPAD_INITIALIZE@r 0035  
                   __end_of_KEYPAD_VALUES 1011                               __pbssCOMRAM 003B  
           __end_of_Application_intialize 1654              __end_of_GPIO_PIN_WRITE_LOGIC 1234  
                     __end_of_LED_Turn_ON 14D8                   KEYPAD_INITIALIZE@Retval 0034  
                 KEYPAD_INITIALIZE@keypad 0033  GPIO_PIN_DIRECTION_INITIALIZE@_PIN_CONFIG 0028  
             __end_of_GPIO_PIN_INITIALIZE 15A8                               __smallconst 1000  
                      RELAY_TURN_ON@F3152 003C               __end_of_GPIO_PIN_READ_LOGIC 13DE  
                __end_of_KEYPAD_GET_VALUE 133A           GPIO_PIN_WRITE_LOGIC@_PIN_CONFIG 0028  
   __end_of_GPIO_PIN_DIRECTION_INITIALIZE 1124             _GPIO_PIN_DIRECTION_INITIALIZE 1012  
                                _PORT_REG 000B                 GPIO_PIN_INITIALIZE@Retval 0032  
                GPIO_PIN_READ_LOGIC@LOGIC 0029                                  _TRIS_REG 0015  
                               copy_data0 15BC                 GPIO_PIN_WRITE_LOGIC@LOGIC 0029  
                             _LED_Turn_ON 1462                                  __Hrparam 0000  
                                __Lrparam 0000                      _GPIO_PIN_WRITE_LOGIC 1124  
                                __ptext10 1012       GPIO_PIN_DIRECTION_INITIALIZE@Retval 002E  
                                isa$xinst 0000                            _LED_INITIALIZE 14D8  
                         LED_TOGGLE@F3163 003E                     ?_GPIO_PIN_WRITE_LOGIC 0028  
                      LED_Turn_ON@PIN_OBJ 0033                    __end_of_LED_INITIALIZE 154A  
                   _Application_intialize 164E                         _KEYPAD_INITIALIZE 13DE  
                       ?_KEYPAD_GET_VALUE 0030                        ?_KEYPAD_INITIALIZE 0033  
                         ?_LED_INITIALIZE 0033                        ??_KEYPAD_GET_VALUE 0032  
                   RELAY_INITIALIZE@F3146 003D  
