

Microchip MPLAB XC8 Assembler V2.46 build 20240104201356 
                                                                                               Mon Nov 04 01:00:44 2024

Microchip MPLAB XC8 C Compiler v2.46 (Free license) build 20240104201356 Og1 
     1                           	processor	18F46K20
     2                           	fnconf	rparam,??,?,0
     3                           	pagewidth 120
     4                           	opt	flic
     5                           	psect	idataCOMRAM,global,class=CODE,delta=1,noexec
     6                           	psect	idataBANK0,global,class=CODE,delta=1,noexec
     7                           	psect	smallconst,global,reloc=2,class=SMALLCONST,delta=1,noexec
     8                           	psect	nvCOMRAM,global,class=COMRAM,space=1,delta=1,lowdata,noexec
     9                           	psect	cinit,global,reloc=2,class=CODE,delta=1
    10                           	psect	bssCOMRAM,global,class=COMRAM,space=1,delta=1,lowdata,noexec
    11                           	psect	dataCOMRAM,global,class=COMRAM,space=1,delta=1,lowdata,noexec
    12                           	psect	dataBANK0,global,class=BANK0,space=1,delta=1,lowdata,noexec
    13                           	psect	cstackBANK0,global,class=BANK0,space=1,delta=1,lowdata,noexec
    14                           	psect	cstackCOMRAM,global,class=COMRAM,space=1,delta=1,lowdata,noexec
    15                           	psect	text0,global,reloc=2,class=CODE,delta=1
    16                           	psect	text1,global,reloc=2,class=CODE,delta=1
    17                           	psect	text2,global,reloc=2,class=CODE,delta=1
    18                           	psect	text3,global,reloc=2,class=CODE,delta=1
    19                           	psect	text4,global,reloc=2,class=CODE,delta=1
    20                           	psect	text5,global,reloc=2,class=CODE,delta=1
    21                           	psect	text6,global,reloc=2,class=CODE,delta=1
    22                           	psect	text7,global,reloc=2,class=CODE,delta=1
    23                           	psect	text8,global,reloc=2,class=CODE,delta=1
    24                           	psect	text9,global,reloc=2,class=CODE,delta=1
    25                           	psect	text10,global,reloc=2,class=CODE,delta=1
    26                           	psect	text11,global,reloc=2,class=CODE,delta=1
    27                           	psect	text12,global,reloc=2,class=CODE,delta=1
    28                           	psect	text13,global,reloc=2,class=CODE,delta=1
    29                           	psect	text14,global,reloc=2,class=CODE,delta=1
    30                           	psect	intcode,global,reloc=2,class=CODE,delta=1
    31                           	psect	text16,global,reloc=2,class=CODE,delta=1
    32                           	psect	text17,global,reloc=2,class=CODE,delta=1
    33                           	psect	text18,global,reloc=2,class=CODE,delta=1
    34                           	psect	text19,global,reloc=2,class=CODE,delta=1
    35                           	psect	text20,global,reloc=2,class=CODE,delta=1
    36                           	psect	text21,global,reloc=2,class=CODE,delta=1
    37                           	psect	text22,global,reloc=2,class=CODE,delta=1
    38                           	psect	text23,global,reloc=2,class=CODE,delta=1
    39                           	psect	text24,global,reloc=2,class=CODE,delta=1
    40                           	psect	text25,global,reloc=2,class=CODE,delta=1
    41                           	psect	text26,global,reloc=2,class=CODE,delta=1
    42                           	psect	text27,global,reloc=2,class=CODE,delta=1
    43                           	psect	text28,global,reloc=2,class=CODE,delta=1
    44                           	psect	text29,global,reloc=2,class=CODE,delta=1
    45                           	psect	text30,global,reloc=2,class=CODE,delta=1
    46                           	psect	text31,global,reloc=2,class=CODE,delta=1
    47                           	psect	text32,global,reloc=2,class=CODE,delta=1
    48                           	psect	text33,global,reloc=2,class=CODE,delta=1
    49                           	psect	intsave_regs,global,class=BIGRAM,space=1,delta=1,noexec
    50                           	psect	rparam,global,class=COMRAM,space=1,delta=1,noexec
    51                           	psect	temp,global,ovrld,common,class=COMRAM,space=1,delta=1,lowdata
    52                           	psect	config,global,abs,ovrld,class=CONFIG,space=4,delta=1,noexec
    53   000000                     
    54                           ; Generated 12/10/2023 GMT
    55                           ; 
    56                           ; Copyright © 2023, Microchip Technology Inc. and its subsidiaries ("Microchip")
    57                           ; All rights reserved.
    58                           ; 
    59                           ; This software is developed by Microchip Technology Inc. and its subsidiaries ("Microch
      +                          ip").
    60                           ; 
    61                           ; Redistribution and use in source and binary forms, with or without modification, are
    62                           ; permitted provided that the following conditions are met:
    63                           ; 
    64                           ;     1. Redistributions of source code must retain the above copyright notice, this lis
      +                          t of
    65                           ;        conditions and the following disclaimer.
    66                           ; 
    67                           ;     2. Redistributions in binary form must reproduce the above copyright notice, this 
      +                          list
    68                           ;        of conditions and the following disclaimer in the documentation and/or other
    69                           ;        materials provided with the distribution. Publication is not required when
    70                           ;        this file is used in an embedded application.
    71                           ; 
    72                           ;     3. Microchip's name may not be used to endorse or promote products derived from th
      +                          is
    73                           ;        software without specific prior written permission.
    74                           ; 
    75                           ; THIS SOFTWARE IS PROVIDED BY MICROCHIP "AS IS" AND ANY EXPRESS OR IMPLIED WARRANTIES,
    76                           ; INCLUDING, BUT NOT LIMITED TO, THE IMPLIED WARRANTIES OF MERCHANTABILITY AND FITNESS F
      +                          OR
    77                           ; PURPOSE ARE DISCLAIMED.  IN NO EVENT SHALL MICROCHIP BE LIABLE FOR ANY DIRECT, INDIREC
      +                          T,
    78                           ; INCIDENTAL, SPECIAL, EXEMPLARY, OR CONSEQUENTIAL DAMAGES (INCLUDING BUT NOT LIMITED TO
    79                           ; PROCUREMENT OF SUBSTITUTE GOODS OR SERVICES; LOSS OF USE, DATA OR PROFITS; OR BUSINESS
    80                           ; INTERRUPTION) HOWSOEVER CAUSED AND ON ANY THEORY OF LIABILITY, WHETHER IN CONTRACT, ST
      +                          RICT
    81                           ; LIABILITY, OR TORT (INCLUDING NEGLIGENCE OR OTHERWISE) ARISING IN ANY WAY OUT OF THE U
      +                          SE OF
    82                           ; THIS SOFTWARE, EVEN IF ADVISED OF THE POSSIBILITY OF SUCH DAMAGE.
    83                           ; 
    84                           ; 
    85                           ; Code-generator required, PIC18F46K20 Definitions
    86                           ; 
    87                           ; SFR Addresses
    88   000000                     
    89                           	psect	idataCOMRAM
    90   001D68                     __pidataCOMRAM:
    91                           	callstack 0
    92                           
    93                           ;initializer for _LAT_REG
    94   001D68  89                 	db	137
    95   001D69  0F                 	db	15
    96   001D6A  8A                 	db	138
    97   001D6B  0F                 	db	15
    98   001D6C  8B                 	db	139
    99   001D6D  0F                 	db	15
   100   001D6E  8C                 	db	140
   101   001D6F  0F                 	db	15
   102   001D70  8D                 	db	141
   103   001D71  0F                 	db	15
   104                           
   105                           ;initializer for _led4
   106   001D72  1A                 	db	26
   107                           
   108                           ;initializer for _led3
   109   001D73  12                 	db	18
   110                           
   111                           ;initializer for _led2
   112   001D74  0A                 	db	10
   113                           
   114                           ;initializer for _led1
   115   001D75  02                 	db	2
   116                           
   117                           	psect	idataBANK0
   118   001D16                     __pidataBANK0:
   119                           	callstack 0
   120                           
   121                           ;initializer for _PORT_REG
   122   001D16  80                 	db	128
   123   001D17  0F                 	db	15
   124   001D18  81                 	db	129
   125   001D19  0F                 	db	15
   126   001D1A  82                 	db	130
   127   001D1B  0F                 	db	15
   128   001D1C  83                 	db	131
   129   001D1D  0F                 	db	15
   130   001D1E  84                 	db	132
   131   001D1F  0F                 	db	15
   132                           
   133                           ;initializer for _TRIS_REG
   134   001D20  92                 	db	146
   135   001D21  0F                 	db	15
   136   001D22  93                 	db	147
   137   001D23  0F                 	db	15
   138   001D24  94                 	db	148
   139   001D25  0F                 	db	15
   140   001D26  95                 	db	149
   141   001D27  0F                 	db	15
   142   001D28  96                 	db	150
   143   001D29  0F                 	db	15
   144                           
   145                           ;initializer for _lcd2
   146   001D2A  32                 	db	50
   147   001D2B  3A                 	db	58
   148   001D2C  03                 	db	3
   149   001D2D  0B                 	db	11
   150   001D2E  13                 	db	19
   151   001D2F  1B                 	db	27
   152   001D30  23                 	db	35
   153   001D31  2B                 	db	43
   154   001D32  33                 	db	51
   155   001D33  3B                 	db	59
   156                           
   157                           ;initializer for _RB7__
   158   001D34  9A                 	db	low _RB7_ISR_LOW_TT
   159   001D35  1D                 	db	high _RB7_ISR_LOW_TT
   160   001D36  CA                 	db	low _RB7_ISR_HIGH_TT
   161   001D37  1D                 	db	high _RB7_ISR_HIGH_TT
   162   001D38  79                 	db	121
   163   001D39  00                 	db	0
   164                           
   165                           ;initializer for _RB6__
   166   001D3A  76                 	db	low _RB6_ISR_LOW_TT
   167   001D3B  1D                 	db	high _RB6_ISR_LOW_TT
   168   001D3C  A6                 	db	low _RB6_ISR_HIGH_TT
   169   001D3D  1D                 	db	high _RB6_ISR_HIGH_TT
   170   001D3E  71                 	db	113
   171   001D3F  01                 	db	1
   172                           
   173                           ;initializer for _RB5__
   174   001D40  82                 	db	low _RB5_ISR_LOW_TT
   175   001D41  1D                 	db	high _RB5_ISR_LOW_TT
   176   001D42  B2                 	db	low _RB5_ISR_HIGH_TT
   177   001D43  1D                 	db	high _RB5_ISR_HIGH_TT
   178   001D44  69                 	db	105
   179   001D45  00                 	db	0
   180                           
   181                           ;initializer for _RB4__
   182   001D46  8E                 	db	low _RB4_ISR_LOW_TT
   183   001D47  1D                 	db	high _RB4_ISR_LOW_TT
   184   001D48  BE                 	db	low _RB4_ISR_HIGH_TT
   185   001D49  1D                 	db	high _RB4_ISR_HIGH_TT
   186   001D4A  61                 	db	97
   187   001D4B  01                 	db	1
   188                           
   189                           ;initializer for _lcd1
   190   001D4C  02                 	db	2
   191   001D4D  0A                 	db	10
   192   001D4E  12                 	db	18
   193   001D4F  1A                 	db	26
   194   001D50  22                 	db	34
   195   001D51  2A                 	db	42
   196                           
   197                           	psect	smallconst
   198   001000                     __psmallconst:
   199                           	callstack 0
   200   001000  00                 	db	0
   201   001001                     _KEYPAD_VALUES:
   202                           	callstack 0
   203   001001  37                 	db	55
   204   001002  38                 	db	56
   205   001003  39                 	db	57
   206   001004  2F                 	db	47
   207   001005  34                 	db	52
   208   001006  35                 	db	53
   209   001007  36                 	db	54
   210   001008  2A                 	db	42
   211   001009  31                 	db	49
   212   00100A  32                 	db	50
   213   00100B  33                 	db	51
   214   00100C  2D                 	db	45
   215   00100D  43                 	db	67
   216   00100E  30                 	db	48
   217   00100F  3D                 	db	61
   218   001010  2B                 	db	43
   219   001011                     __end_of_KEYPAD_VALUES:
   220                           	callstack 0
   221   000000                     _INTCON2bits	set	4081
   222   001011                     STR_1:
   223   001011  25                 	db	37
   224   001012  69                 	db	105	;'i'
   225   001013  00                 	db	0
   226   001014  00                 	db	0	; dummy byte at the end
   227   000000                     
   228                           	psect	nvCOMRAM
   229   00004B                     __pnvCOMRAM:
   230                           	callstack 0
   231   00004B                     _Ret:
   232                           	callstack 0
   233   00004B                     	ds	1
   234   000000                     _PORTBbits	set	3969
   235   000000                     _IOCBbits	set	3965
   236   000000                     _PORTA	set	3968
   237   000000                     _TRISA	set	3986
   238   000000                     _INTCON3bits	set	4080
   239   000000                     _INTCONbits	set	4082
   240   000000                     _TRISE	set	3990
   241   000000                     _TRISD	set	3989
   242   000000                     _TRISC	set	3988
   243   000000                     _TRISB	set	3987
   244   000000                     _LATA	set	3977
   245   000000                     _PORTE	set	3972
   246   000000                     _PORTD	set	3971
   247   000000                     _PORTC	set	3970
   248   000000                     _PORTB	set	3969
   249   000000                     _LATE	set	3981
   250   000000                     _LATD	set	3980
   251   000000                     _LATC	set	3979
   252   000000                     _LATB	set	3978
   253                           
   254                           ; #config settings
   255                           
   256                           	psect	cinit
   257   001C38                     __pcinit:
   258                           	callstack 0
   259   001C38                     start_initialization:
   260                           	callstack 0
   261   001C38                     __initialization:
   262                           	callstack 0
   263                           
   264                           ; Initialize objects allocated to BANK0 (60 bytes)
   265                           ; load TBLPTR registers with __pidataBANK0
   266   001C38  0E16               	movlw	low __pidataBANK0
   267   001C3A  6EF6               	movwf	tblptrl,c
   268   001C3C  0E1D               	movlw	high __pidataBANK0
   269   001C3E  6EF7               	movwf	tblptrh,c
   270   001C40  0E00               	movlw	low (__pidataBANK0 shr (0+16))
   271   001C42  6EF8               	movwf	tblptru,c
   272   001C44  EE00  F060         	lfsr	0,__pdataBANK0
   273   001C48  EE10 F03C          	lfsr	1,60
   274   001C4C                     copy_data0:
   275   001C4C  0009               	tblrd		*+
   276   001C4E  CFF5 FFEE          	movff	tablat,postinc0
   277   001C52  50E5               	movf	postdec1,w,c
   278   001C54  50E1               	movf	fsr1l,w,c
   279   001C56  E1FA               	bnz	copy_data0
   280                           
   281                           ; Initialize objects allocated to COMRAM (14 bytes)
   282                           ; load TBLPTR registers with __pidataCOMRAM
   283   001C58  0E68               	movlw	low __pidataCOMRAM
   284   001C5A  6EF6               	movwf	tblptrl,c
   285   001C5C  0E1D               	movlw	high __pidataCOMRAM
   286   001C5E  6EF7               	movwf	tblptrh,c
   287   001C60  0E00               	movlw	low (__pidataCOMRAM shr (0+16))
   288   001C62  6EF8               	movwf	tblptru,c
   289   001C64  EE00  F03D         	lfsr	0,__pdataCOMRAM
   290   001C68  EE10 F00E          	lfsr	1,14
   291   001C6C                     copy_data1:
   292   001C6C  0009               	tblrd		*+
   293   001C6E  CFF5 FFEE          	movff	tablat,postinc0
   294   001C72  50E5               	movf	postdec1,w,c
   295   001C74  50E1               	movf	fsr1l,w,c
   296   001C76  E1FA               	bnz	copy_data1
   297                           
   298                           ; Clear objects allocated to COMRAM (33 bytes)
   299   001C78  EE00  F001         	lfsr	0,__pbssCOMRAM
   300   001C7C  0E21               	movlw	33
   301   001C7E                     clear_0:
   302   001C7E  6AEE               	clrf	postinc0,c
   303   001C80  06E8               	decf	wreg,f,c
   304   001C82  E1FD               	bnz	clear_0
   305   001C84                     end_of_initialization:
   306                           	callstack 0
   307   001C84                     __end_of__initialization:
   308                           	callstack 0
   309   001C84  904C               	bcf	int$flags,0,c	;clear compiler interrupt flag (level 1)
   310   001C86  924C               	bcf	int$flags,1,c	;clear compiler interrupt flag (level 2)
   311   001C88  0100               	movlb	0
   312   001C8A  EFB8  F00D         	goto	_main	;jump to C main() function
   313                           
   314                           	psect	bssCOMRAM
   315   000001                     __pbssCOMRAM:
   316                           	callstack 0
   317   000001                     _RB7_interrupt_handler_HIGH:
   318                           	callstack 0
   319   000001                     	ds	2
   320   000003                     _RB7_interrupt_handler_LOW:
   321                           	callstack 0
   322   000003                     	ds	2
   323   000005                     _RB6_interrupt_handler_HIGH:
   324                           	callstack 0
   325   000005                     	ds	2
   326   000007                     _RB6_interrupt_handler_LOW:
   327                           	callstack 0
   328   000007                     	ds	2
   329   000009                     _RB5_interrupt_handler_HIGH:
   330                           	callstack 0
   331   000009                     	ds	2
   332   00000B                     _RB5_interrupt_handler_LOW:
   333                           	callstack 0
   334   00000B                     	ds	2
   335   00000D                     _RB4_interrupt_handler_HIGH:
   336                           	callstack 0
   337   00000D                     	ds	2
   338   00000F                     _RB4_interrupt_handler_LOW:
   339                           	callstack 0
   340   00000F                     	ds	2
   341   000011                     _int2_interrupt_handler:
   342                           	callstack 0
   343   000011                     	ds	2
   344   000013                     _int1_interrupt_handler:
   345                           	callstack 0
   346   000013                     	ds	2
   347   000015                     _int0_interrupt_handler:
   348                           	callstack 0
   349   000015                     	ds	2
   350   000017                     _rb7_flag:
   351                           	callstack 0
   352   000017                     	ds	1
   353   000018                     _rb6_flag:
   354                           	callstack 0
   355   000018                     	ds	1
   356   000019                     _rb5_flag:
   357                           	callstack 0
   358   000019                     	ds	1
   359   00001A                     _rb4_flag:
   360                           	callstack 0
   361   00001A                     	ds	1
   362   00001B                     RELAY_TURN_OFF@F3786:
   363                           	callstack 0
   364   00001B                     	ds	1
   365   00001C                     RELAY_TURN_ON@F3780:
   366                           	callstack 0
   367   00001C                     	ds	1
   368   00001D                     RELAY_INITIALIZE@F3774:
   369                           	callstack 0
   370   00001D                     	ds	1
   371   00001E                     LED_TOGGLE@F3791:
   372                           	callstack 0
   373   00001E                     	ds	1
   374   00001F                     LED_Turn_OFF@F3786:
   375                           	callstack 0
   376   00001F                     	ds	1
   377   000020                     LED_Turn_ON@F3781:
   378                           	callstack 0
   379   000020                     	ds	1
   380   000021                     LED_INITIALIZE@F3776:
   381                           	callstack 0
   382   000021                     	ds	1
   383                           
   384                           	psect	dataCOMRAM
   385   00003D                     __pdataCOMRAM:
   386                           	callstack 0
   387   00003D                     _LAT_REG:
   388                           	callstack 0
   389   00003D                     	ds	10
   390   000047                     _led4:
   391                           	callstack 0
   392   000047                     	ds	1
   393   000048                     _led3:
   394                           	callstack 0
   395   000048                     	ds	1
   396   000049                     _led2:
   397                           	callstack 0
   398   000049                     	ds	1
   399   00004A                     _led1:
   400                           	callstack 0
   401   00004A                     	ds	1
   402                           
   403                           	psect	dataBANK0
   404   000060                     __pdataBANK0:
   405                           	callstack 0
   406   000060                     _PORT_REG:
   407                           	callstack 0
   408   000060                     	ds	10
   409   00006A                     _TRIS_REG:
   410                           	callstack 0
   411   00006A                     	ds	10
   412   000074                     _lcd2:
   413                           	callstack 0
   414   000074                     	ds	10
   415   00007E                     _RB7__:
   416                           	callstack 0
   417   00007E                     	ds	6
   418   000084                     _RB6__:
   419                           	callstack 0
   420   000084                     	ds	6
   421   00008A                     _RB5__:
   422                           	callstack 0
   423   00008A                     	ds	6
   424   000090                     _RB4__:
   425                           	callstack 0
   426   000090                     	ds	6
   427   000096                     _lcd1:
   428                           	callstack 0
   429   000096                     	ds	6
   430                           
   431                           	psect	cstackBANK0
   432   00009C                     __pcstackBANK0:
   433                           	callstack 0
   434   00009C                     lcd_send_4bits@lcd:
   435                           	callstack 0
   436   00009C                     lcd_4bit_send_enable_signal@lcd:
   437                           	callstack 0
   438   00009C                     lcd_8bit_send_enable_signal@lcd:
   439                           	callstack 0
   440   00009C                     GPIO_PIN_INITIALIZE@_PIN_CONFIG:
   441                           	callstack 0
   442   00009C                     EXTERNAL_INTERRUPT_RBX_INIT@Retval:
   443                           	callstack 0
   444                           
   445                           ; 1 bytes @ 0x0
   446   00009C                     	ds	1
   447   00009D                     ??_GPIO_PIN_INITIALIZE:
   448   00009D                     lcd_send_4bits@_data_command:
   449                           	callstack 0
   450   00009D                     lcd_4bit_send_enable_signal@Retval:
   451                           	callstack 0
   452   00009D                     lcd_8bit_send_enable_signal@Retval:
   453                           	callstack 0
   454                           
   455                           ; 1 bytes @ 0x1
   456   00009D                     	ds	1
   457   00009E                     ??_lcd_send_4bits:
   458   00009E                     LCD_8BIT_SEND_COMMAND@lcd:
   459                           	callstack 0
   460   00009E                     GPIO_PIN_INITIALIZE@Retval:
   461                           	callstack 0
   462                           
   463                           ; 1 bytes @ 0x2
   464   00009E                     	ds	1
   465   00009F                     LCD_8BIT_SEND_COMMAND@command:
   466                           	callstack 0
   467   00009F                     LED_INITIALIZE@led:
   468                           	callstack 0
   469                           
   470                           ; 1 bytes @ 0x3
   471   00009F                     	ds	1
   472   0000A0                     ??_LCD_8BIT_SEND_COMMAND:
   473   0000A0                     ??_LED_INITIALIZE:
   474   0000A0                     lcd_send_4bits@Retval:
   475                           	callstack 0
   476                           
   477                           ; 1 bytes @ 0x4
   478   0000A0                     	ds	1
   479   0000A1                     LED_INITIALIZE@Retval:
   480                           	callstack 0
   481   0000A1                     lcd_send_4bits@i:
   482                           	callstack 0
   483                           
   484                           ; 2 bytes @ 0x5
   485   0000A1                     	ds	1
   486   0000A2                     LCD_8BIT_SEND_COMMAND@Retval:
   487                           	callstack 0
   488   0000A2                     LED_INITIALIZE@PIN_OBJ:
   489                           	callstack 0
   490                           
   491                           ; 1 bytes @ 0x6
   492   0000A2                     	ds	1
   493   0000A3                     LCD_4BIT_SEND_COMMAND@lcd:
   494                           	callstack 0
   495   0000A3                     LCD_8BIT_SEND_COMMAND@i:
   496                           	callstack 0
   497                           
   498                           ; 2 bytes @ 0x7
   499   0000A3                     	ds	1
   500   0000A4                     LCD_4BIT_SEND_COMMAND@command:
   501                           	callstack 0
   502                           
   503                           ; 1 bytes @ 0x8
   504   0000A4                     	ds	1
   505   0000A5                     LCD_4BIT_SEND_COMMAND@Retval:
   506                           	callstack 0
   507   0000A5                     LCD_8BIT_INITIALIZE@lcd:
   508                           	callstack 0
   509                           
   510                           ; 1 bytes @ 0x9
   511   0000A5                     	ds	1
   512   0000A6                     ??_LCD_8BIT_INITIALIZE:
   513   0000A6                     LCD_4BIT_INITIALIZE@lcd:
   514                           	callstack 0
   515                           
   516                           ; 1 bytes @ 0xA
   517   0000A6                     	ds	1
   518   0000A7                     ??_LCD_4BIT_INITIALIZE:
   519   0000A7                     LCD_8BIT_INITIALIZE@i:
   520                           	callstack 0
   521                           
   522                           ; 2 bytes @ 0xB
   523   0000A7                     	ds	1
   524   0000A8                     LCD_4BIT_INITIALIZE@i:
   525                           	callstack 0
   526                           
   527                           ; 2 bytes @ 0xC
   528   0000A8                     	ds	1
   529   0000A9                     LCD_8BIT_INITIALIZE@Retval:
   530                           	callstack 0
   531                           
   532                           ; 1 bytes @ 0xD
   533   0000A9                     	ds	1
   534   0000AA                     LCD_4BIT_INITIALIZE@Retval:
   535                           	callstack 0
   536                           
   537                           ; 1 bytes @ 0xE
   538   0000AA                     	ds	1
   539                           
   540                           	psect	cstackCOMRAM
   541   000022                     __pcstackCOMRAM:
   542                           	callstack 0
   543   000022                     i2GPIO_PIN_WRITE_LOGIC@_PIN_CONFIG:
   544                           	callstack 0
   545                           
   546                           ; 1 bytes @ 0x0
   547   000022                     	ds	1
   548   000023                     i2GPIO_PIN_WRITE_LOGIC@LOGIC:
   549                           	callstack 0
   550                           
   551                           ; 1 bytes @ 0x1
   552   000023                     	ds	1
   553   000024                     ??i2_GPIO_PIN_WRITE_LOGIC:
   554                           
   555                           ; 1 bytes @ 0x2
   556   000024                     	ds	5
   557   000029                     i2GPIO_PIN_WRITE_LOGIC@Retval:
   558                           	callstack 0
   559                           
   560                           ; 1 bytes @ 0x7
   561   000029                     	ds	1
   562   00002A                     LED_Turn_ON@led:
   563                           	callstack 0
   564   00002A                     LED_Turn_OFF@led:
   565                           	callstack 0
   566                           
   567                           ; 1 bytes @ 0x8
   568   00002A                     	ds	1
   569   00002B                     ??_LED_Turn_ON:
   570   00002B                     ??_LED_Turn_OFF:
   571                           
   572                           ; 1 bytes @ 0x9
   573   00002B                     	ds	1
   574   00002C                     LED_Turn_ON@Retval:
   575                           	callstack 0
   576   00002C                     LED_Turn_OFF@Retval:
   577                           	callstack 0
   578                           
   579                           ; 1 bytes @ 0xA
   580   00002C                     	ds	1
   581   00002D                     LED_Turn_ON@PIN_OBJ:
   582                           	callstack 0
   583   00002D                     LED_Turn_OFF@PIN_OBJ:
   584                           	callstack 0
   585                           
   586                           ; 1 bytes @ 0xB
   587   00002D                     	ds	1
   588   00002E                     RB4_ISR@rb4:
   589                           	callstack 0
   590   00002E                     RB5_ISR@rb5:
   591                           	callstack 0
   592   00002E                     RB6_ISR@rb6:
   593                           	callstack 0
   594   00002E                     RB7_ISR@rb7:
   595                           	callstack 0
   596                           
   597                           ; 1 bytes @ 0xC
   598   00002E                     	ds	1
   599   00002F                     ??_interrupt_manager:
   600                           
   601                           ; 1 bytes @ 0xD
   602   00002F                     	ds	6
   603   000035                     GPIO_PIN_DIRECTION_INITIALIZE@_PIN_CONFIG:
   604                           	callstack 0
   605   000035                     GPIO_PIN_WRITE_LOGIC@_PIN_CONFIG:
   606                           	callstack 0
   607                           
   608                           ; 1 bytes @ 0x13
   609   000035                     	ds	1
   610   000036                     ??_GPIO_PIN_DIRECTION_INITIALIZE:
   611   000036                     GPIO_PIN_WRITE_LOGIC@LOGIC:
   612                           	callstack 0
   613                           
   614                           ; 1 bytes @ 0x14
   615   000036                     	ds	1
   616   000037                     ??_GPIO_PIN_WRITE_LOGIC:
   617                           
   618                           ; 1 bytes @ 0x15
   619   000037                     	ds	4
   620   00003B                     GPIO_PIN_DIRECTION_INITIALIZE@Retval:
   621                           	callstack 0
   622                           
   623                           ; 1 bytes @ 0x19
   624   00003B                     	ds	1
   625   00003C                     GPIO_PIN_WRITE_LOGIC@Retval:
   626                           	callstack 0
   627   00003C                     EXTERNAL_INTERRUPT_RBX_INIT@RBX:
   628                           	callstack 0
   629                           
   630                           ; 1 bytes @ 0x1A
   631   00003C                     	ds	1
   632   00003D                     
   633                           ; 1 bytes @ 0x1B
   634 ;;
   635 ;;Main: autosize = 0, tempsize = 0, incstack = 0, save=0
   636 ;;
   637 ;; *************** function _main *****************
   638 ;; Defined at:
   639 ;;		line 76 in file "Drivers_Main.c"
   640 ;; Parameters:    Size  Location     Type
   641 ;;		None
   642 ;; Auto vars:     Size  Location     Type
   643 ;;		None
   644 ;; Return value:  Size  Location     Type
   645 ;;                  2  805[None  ] int 
   646 ;; Registers used:
   647 ;;		wreg, fsr2l, fsr2h, status,2, status,0, prodl, prodh, cstack
   648 ;; Tracked objects:
   649 ;;		On entry : 0/0
   650 ;;		On exit  : 0/0
   651 ;;		Unchanged: 0/0
   652 ;; Data sizes:     COMRAM   BANK0   BANK1   BANK2   BANK3   BANK4   BANK5   BANK6   BANK7   BANK8   BANK9  BANK10  BANK1
      +1  BANK12  BANK13  BANK14  BANK15
   653 ;;      Params:         0       0       0       0       0       0       0       0       0       0       0       0       
      +0       0       0       0       0
   654 ;;      Locals:         0       0       0       0       0       0       0       0       0       0       0       0       
      +0       0       0       0       0
   655 ;;      Temps:          0       0       0       0       0       0       0       0       0       0       0       0       
      +0       0       0       0       0
   656 ;;      Totals:         0       0       0       0       0       0       0       0       0       0       0       0       
      +0       0       0       0       0
   657 ;;Total ram usage:        0 bytes
   658 ;; Hardware stack levels required when called: 11
   659 ;; This function calls:
   660 ;;		_Application_intialize
   661 ;;		_EXTERNAL_INTERRUPT_RBX_INIT
   662 ;;		_LED_INITIALIZE
   663 ;; This function is called by:
   664 ;;		Startup code after reset
   665 ;; This function uses a non-reentrant model
   666 ;;
   667                           
   668                           	psect	text0
   669   001B70                     __ptext0:
   670                           	callstack 0
   671   001B70                     _main:
   672                           	callstack 20
   673   001B70                     
   674                           ;Drivers_Main.c: 77:     Application_intialize();
   675   001B70  ECEB  F00E         	call	_Application_intialize	;wreg free
   676                           
   677                           ;Drivers_Main.c: 79:     Ret = LED_INITIALIZE(&led1);
   678   001B74  0E4A               	movlw	low _led1
   679   001B76  0100               	movlb	0	; () banked
   680   001B78  6F9F               	movwf	LED_INITIALIZE@led& (0+255),b
   681   001B7A  EC97  F00C         	call	_LED_INITIALIZE	;wreg free
   682   001B7E  6E4B               	movwf	_Ret^0,c
   683                           
   684                           ;Drivers_Main.c: 80:     Ret = LED_INITIALIZE(&led2);
   685   001B80  0E49               	movlw	low _led2
   686   001B82  0100               	movlb	0	; () banked
   687   001B84  6F9F               	movwf	LED_INITIALIZE@led& (0+255),b
   688   001B86  EC97  F00C         	call	_LED_INITIALIZE	;wreg free
   689   001B8A  6E4B               	movwf	_Ret^0,c
   690                           
   691                           ;Drivers_Main.c: 81:     Ret = LED_INITIALIZE(&led3);
   692   001B8C  0E48               	movlw	low _led3
   693   001B8E  0100               	movlb	0	; () banked
   694   001B90  6F9F               	movwf	LED_INITIALIZE@led& (0+255),b
   695   001B92  EC97  F00C         	call	_LED_INITIALIZE	;wreg free
   696   001B96  6E4B               	movwf	_Ret^0,c
   697                           
   698                           ;Drivers_Main.c: 82:     Ret = LED_INITIALIZE(&led4);
   699   001B98  0E47               	movlw	low _led4
   700   001B9A  0100               	movlb	0	; () banked
   701   001B9C  6F9F               	movwf	LED_INITIALIZE@led& (0+255),b
   702   001B9E  EC97  F00C         	call	_LED_INITIALIZE	;wreg free
   703   001BA2  6E4B               	movwf	_Ret^0,c
   704                           
   705                           ;Drivers_Main.c: 84:     Ret = EXTERNAL_INTERRUPT_RBX_INIT(&RB4__);
   706   001BA4  0E90               	movlw	low _RB4__
   707   001BA6  6E3C               	movwf	EXTERNAL_INTERRUPT_RBX_INIT@RBX^0,c
   708   001BA8  ECBC  F009         	call	_EXTERNAL_INTERRUPT_RBX_INIT	;wreg free
   709   001BAC  6E4B               	movwf	_Ret^0,c
   710                           
   711                           ;Drivers_Main.c: 85:     Ret = EXTERNAL_INTERRUPT_RBX_INIT(&RB5__);
   712   001BAE  0E8A               	movlw	low _RB5__
   713   001BB0  6E3C               	movwf	EXTERNAL_INTERRUPT_RBX_INIT@RBX^0,c
   714   001BB2  ECBC  F009         	call	_EXTERNAL_INTERRUPT_RBX_INIT	;wreg free
   715   001BB6  6E4B               	movwf	_Ret^0,c
   716                           
   717                           ;Drivers_Main.c: 86:     Ret = EXTERNAL_INTERRUPT_RBX_INIT(&RB6__);
   718   001BB8  0E84               	movlw	low _RB6__
   719   001BBA  6E3C               	movwf	EXTERNAL_INTERRUPT_RBX_INIT@RBX^0,c
   720   001BBC  ECBC  F009         	call	_EXTERNAL_INTERRUPT_RBX_INIT	;wreg free
   721   001BC0  6E4B               	movwf	_Ret^0,c
   722                           
   723                           ;Drivers_Main.c: 87:     Ret = EXTERNAL_INTERRUPT_RBX_INIT(&RB7__);
   724   001BC2  0E7E               	movlw	low _RB7__
   725   001BC4  6E3C               	movwf	EXTERNAL_INTERRUPT_RBX_INIT@RBX^0,c
   726   001BC6  ECBC  F009         	call	_EXTERNAL_INTERRUPT_RBX_INIT	;wreg free
   727   001BCA  6E4B               	movwf	_Ret^0,c
   728   001BCC                     l806:
   729   001BCC  EFE6  F00D         	goto	l806
   730   001BD0  EF5F  F001         	goto	start
   731   001BD4                     __end_of_main:
   732                           	callstack 0
   733                           
   734 ;; *************** function _LED_INITIALIZE *****************
   735 ;; Defined at:
   736 ;;		line 18 in file "ECUAL/LED/ECU_LED.c"
   737 ;; Parameters:    Size  Location     Type
   738 ;;  led             1    3[BANK0 ] PTR const struct .
   739 ;;		 -> led4(1), led3(1), led2(1), led1(1), 
   740 ;; Auto vars:     Size  Location     Type
   741 ;;  PIN_OBJ         1    6[BANK0 ] struct .
   742 ;;  Retval          1    5[BANK0 ] enum E3654
   743 ;; Return value:  Size  Location     Type
   744 ;;                  1    wreg      enum E3654
   745 ;; Registers used:
   746 ;;		wreg, fsr2l, fsr2h, status,2, status,0, prodl, prodh, cstack
   747 ;; Tracked objects:
   748 ;;		On entry : 0/0
   749 ;;		On exit  : 0/0
   750 ;;		Unchanged: 0/0
   751 ;; Data sizes:     COMRAM   BANK0   BANK1   BANK2   BANK3   BANK4   BANK5   BANK6   BANK7   BANK8   BANK9  BANK10  BANK1
      +1  BANK12  BANK13  BANK14  BANK15
   752 ;;      Params:         0       1       0       0       0       0       0       0       0       0       0       0       
      +0       0       0       0       0
   753 ;;      Locals:         0       2       0       0       0       0       0       0       0       0       0       0       
      +0       0       0       0       0
   754 ;;      Temps:          0       1       0       0       0       0       0       0       0       0       0       0       
      +0       0       0       0       0
   755 ;;      Totals:         0       4       0       0       0       0       0       0       0       0       0       0       
      +0       0       0       0       0
   756 ;;Total ram usage:        4 bytes
   757 ;; Hardware stack levels used: 1
   758 ;; Hardware stack levels required when called: 7
   759 ;; This function calls:
   760 ;;		_GPIO_PIN_INITIALIZE
   761 ;; This function is called by:
   762 ;;		_main
   763 ;; This function uses a non-reentrant model
   764 ;;
   765                           
   766                           	psect	text1
   767   00192E                     __ptext1:
   768                           	callstack 0
   769   00192E                     _LED_INITIALIZE:
   770                           	callstack 23
   771   00192E                     
   772                           ;ECUAL/LED/ECU_LED.c: 20:     if(((void*)0) == led){
   773   00192E  0100               	movlb	0	; () banked
   774   001930  519F               	movf	LED_INITIALIZE@led& (0+255),w,b
   775   001932  A4D8               	btfss	status,2,c
   776   001934  EF9E  F00C         	goto	u4091
   777   001938  EFA0  F00C         	goto	u4090
   778   00193C                     u4091:
   779   00193C  EFA4  F00C         	goto	l283
   780   001940                     u4090:
   781   001940                     
   782                           ; BSR set to: 0
   783                           ;ECUAL/LED/ECU_LED.c: 21:         Retval = E_NOT_OK;
   784   001940  0E00               	movlw	0
   785   001942  6FA1               	movwf	LED_INITIALIZE@Retval& (0+255),b
   786                           
   787                           ;ECUAL/LED/ECU_LED.c: 22:     }
   788   001944  EFD1  F00C         	goto	l4508
   789   001948                     l283:
   790                           
   791                           ; BSR set to: 0
   792                           ;ECUAL/LED/ECU_LED.c: 24:         PIN_CONFIG_T PIN_OBJ = {
   793   001948  C021  F0A2         	movff	LED_INITIALIZE@F3776,LED_INITIALIZE@PIN_OBJ
   794   00194C                     
   795                           ; BSR set to: 0
   796   00194C  519F               	movf	LED_INITIALIZE@led& (0+255),w,b
   797   00194E  6ED9               	movwf	fsr2l,c
   798   001950  6ADA               	clrf	fsr2h,c
   799   001952  50DF               	movf	223,w,c
   800   001954  0B07               	andlw	7
   801   001956  6FA0               	movwf	??_LED_INITIALIZE& (0+255),b
   802   001958  51A2               	movf	LED_INITIALIZE@PIN_OBJ& (0+255),w,b
   803   00195A  19A0               	xorwf	??_LED_INITIALIZE& (0+255),w,b
   804   00195C  0BF8               	andlw	-8
   805   00195E  19A0               	xorwf	??_LED_INITIALIZE& (0+255),w,b
   806   001960  6FA2               	movwf	LED_INITIALIZE@PIN_OBJ& (0+255),b
   807   001962  519F               	movf	LED_INITIALIZE@led& (0+255),w,b
   808   001964  6ED9               	movwf	fsr2l,c
   809   001966  6ADA               	clrf	fsr2h,c
   810   001968  30DF               	rrcf	223,w,c
   811   00196A  32E8               	rrcf	wreg,f,c
   812   00196C  32E8               	rrcf	wreg,f,c
   813   00196E  0B07               	andlw	7
   814   001970  6FA0               	movwf	??_LED_INITIALIZE& (0+255),b
   815   001972  47A0               	rlncf	??_LED_INITIALIZE& (0+255),f,b
   816   001974  47A0               	rlncf	??_LED_INITIALIZE& (0+255),f,b
   817   001976  47A0               	rlncf	??_LED_INITIALIZE& (0+255),f,b
   818   001978  51A2               	movf	LED_INITIALIZE@PIN_OBJ& (0+255),w,b
   819   00197A  19A0               	xorwf	??_LED_INITIALIZE& (0+255),w,b
   820   00197C  0BC7               	andlw	-57
   821   00197E  19A0               	xorwf	??_LED_INITIALIZE& (0+255),w,b
   822   001980  6FA2               	movwf	LED_INITIALIZE@PIN_OBJ& (0+255),b
   823   001982                     
   824                           ; BSR set to: 0
   825   001982  9DA2               	bcf	LED_INITIALIZE@PIN_OBJ& (0+255),6,b
   826   001984                     
   827                           ; BSR set to: 0
   828   001984  519F               	movf	LED_INITIALIZE@led& (0+255),w,b
   829   001986  6ED9               	movwf	fsr2l,c
   830   001988  6ADA               	clrf	fsr2h,c
   831   00198A  ACDF               	btfss	indf2,6,c
   832   00198C  D002               	bra	u4105
   833   00198E  8FA2               	bsf	LED_INITIALIZE@PIN_OBJ& (0+255),7,b
   834   001990  D002               	bra	u4107
   835   001992                     u4105:
   836   001992  0100               	movlb	0	; () banked
   837   001994  9FA2               	bcf	LED_INITIALIZE@PIN_OBJ& (0+255),7,b
   838   001996                     u4107:
   839   001996                     
   840                           ; BSR set to: 0
   841                           ;ECUAL/LED/ECU_LED.c: 31:         Retval = GPIO_PIN_INITIALIZE(&PIN_OBJ);
   842   001996  0EA2               	movlw	low LED_INITIALIZE@PIN_OBJ
   843   001998  6F9C               	movwf	GPIO_PIN_INITIALIZE@_PIN_CONFIG& (0+255),b
   844   00199A  ECEA  F00D         	call	_GPIO_PIN_INITIALIZE	;wreg free
   845   00199E  0100               	movlb	0	; () banked
   846   0019A0  6FA1               	movwf	LED_INITIALIZE@Retval& (0+255),b
   847   0019A2                     l4508:
   848                           
   849                           ; BSR set to: 0
   850                           ;ECUAL/LED/ECU_LED.c: 33:     return Retval;
   851   0019A2  51A1               	movf	LED_INITIALIZE@Retval& (0+255),w,b
   852   0019A4                     
   853                           ; BSR set to: 0
   854   0019A4  0012               	return		;funcret
   855   0019A6                     __end_of_LED_INITIALIZE:
   856                           	callstack 0
   857                           
   858 ;; *************** function _EXTERNAL_INTERRUPT_RBX_INIT *****************
   859 ;; Defined at:
   860 ;;		line 122 in file "MCAL/Interrupt/MCAL_external_interrupt.c"
   861 ;; Parameters:    Size  Location     Type
   862 ;;  RBX             1   26[COMRAM] PTR const struct .
   863 ;;		 -> RB7__(6), RB6__(6), RB5__(6), RB4__(6), 
   864 ;; Auto vars:     Size  Location     Type
   865 ;;  Retval          1    0[BANK0 ] enum E3654
   866 ;; Return value:  Size  Location     Type
   867 ;;                  1    wreg      enum E3654
   868 ;; Registers used:
   869 ;;		wreg, fsr2l, fsr2h, status,2, status,0, prodl, prodh, cstack
   870 ;; Tracked objects:
   871 ;;		On entry : 0/0
   872 ;;		On exit  : 0/0
   873 ;;		Unchanged: 0/0
   874 ;; Data sizes:     COMRAM   BANK0   BANK1   BANK2   BANK3   BANK4   BANK5   BANK6   BANK7   BANK8   BANK9  BANK10  BANK1
      +1  BANK12  BANK13  BANK14  BANK15
   875 ;;      Params:         1       0       0       0       0       0       0       0       0       0       0       0       
      +0       0       0       0       0
   876 ;;      Locals:         0       1       0       0       0       0       0       0       0       0       0       0       
      +0       0       0       0       0
   877 ;;      Temps:          0       0       0       0       0       0       0       0       0       0       0       0       
      +0       0       0       0       0
   878 ;;      Totals:         1       1       0       0       0       0       0       0       0       0       0       0       
      +0       0       0       0       0
   879 ;;Total ram usage:        2 bytes
   880 ;; Hardware stack levels used: 1
   881 ;; Hardware stack levels required when called: 6
   882 ;; This function calls:
   883 ;;		_GPIO_PIN_DIRECTION_INITIALIZE
   884 ;; This function is called by:
   885 ;;		_main
   886 ;; This function uses a non-reentrant model
   887 ;;
   888                           
   889                           	psect	text2
   890   001378                     __ptext2:
   891                           	callstack 0
   892   001378                     _EXTERNAL_INTERRUPT_RBX_INIT:
   893                           	callstack 24
   894   001378                     
   895                           ;MCAL/Interrupt/MCAL_external_interrupt.c: 124:     if(((void*)0) == RBX){
   896   001378  503C               	movf	EXTERNAL_INTERRUPT_RBX_INIT@RBX^0,w,c
   897   00137A  A4D8               	btfss	status,2,c
   898   00137C  EFC2  F009         	goto	u4111
   899   001380  EFC4  F009         	goto	u4110
   900   001384                     u4111:
   901   001384  EFC9  F009         	goto	l530
   902   001388                     u4110:
   903   001388                     
   904                           ;MCAL/Interrupt/MCAL_external_interrupt.c: 125:         Retval = E_NOT_OK;
   905   001388  0E00               	movlw	0
   906   00138A  0100               	movlb	0	; () banked
   907   00138C  6F9C               	movwf	EXTERNAL_INTERRUPT_RBX_INIT@Retval& (0+255),b
   908                           
   909                           ;MCAL/Interrupt/MCAL_external_interrupt.c: 126:     }
   910   00138E  EF42  F00A         	goto	l4540
   911   001392                     l530:
   912                           
   913                           ;MCAL/Interrupt/MCAL_external_interrupt.c: 135:         (INTCONbits.RBIE = 0);
   914   001392  96F2               	bcf	242,3,c	;volatile
   915                           
   916                           ;MCAL/Interrupt/MCAL_external_interrupt.c: 136:         (INTCONbits.RBIF = 0);
   917   001394  90F2               	bcf	242,0,c	;volatile
   918                           
   919                           ;MCAL/Interrupt/MCAL_external_interrupt.c: 149:             (INTCONbits.GIE = 1);
   920   001396  8EF2               	bsf	242,7,c	;volatile
   921                           
   922                           ;MCAL/Interrupt/MCAL_external_interrupt.c: 150:             (INTCONbits.PEIE = 1);
   923   001398  8CF2               	bsf	242,6,c	;volatile
   924   00139A                     
   925                           ;MCAL/Interrupt/MCAL_external_interrupt.c: 152:         Retval = GPIO_PIN_DIRECTION_INIT
      +                          IALIZE(&(RBX->mcu_pin));
   926   00139A  503C               	movf	EXTERNAL_INTERRUPT_RBX_INIT@RBX^0,w,c
   927   00139C  0F04               	addlw	4
   928   00139E  6E35               	movwf	GPIO_PIN_DIRECTION_INITIALIZE@_PIN_CONFIG^0,c
   929   0013A0  EC33  F009         	call	_GPIO_PIN_DIRECTION_INITIALIZE	;wreg free
   930   0013A4  0100               	movlb	0	; () banked
   931   0013A6  6F9C               	movwf	EXTERNAL_INTERRUPT_RBX_INIT@Retval& (0+255),b
   932                           
   933                           ;MCAL/Interrupt/MCAL_external_interrupt.c: 153:             switch (RBX->mcu_pin.PIN){
   934   0013A8  EF26  F00A         	goto	l4538
   935   0013AC                     l533:
   936                           
   937                           ; BSR set to: 0
   938                           ;MCAL/Interrupt/MCAL_external_interrupt.c: 155:                     (IOCBbits.IOCB4 = 1)
      +                          ;
   939   0013AC  887D               	bsf	125,4,c	;volatile
   940   0013AE                     
   941                           ; BSR set to: 0
   942                           ;MCAL/Interrupt/MCAL_external_interrupt.c: 156:                     RB4_interrupt_handle
      +                          r_HIGH = RBX->ext_interrupt_handler_high;
   943   0013AE  503C               	movf	EXTERNAL_INTERRUPT_RBX_INIT@RBX^0,w,c
   944   0013B0  6ED9               	movwf	fsr2l,c
   945   0013B2  6ADA               	clrf	fsr2h,c
   946   0013B4  0E02               	movlw	2
   947   0013B6  26D9               	addwf	fsr2l,f,c
   948   0013B8  CFDE F00D          	movff	postinc2,_RB4_interrupt_handler_HIGH
   949   0013BC  CFDD F00E          	movff	postdec2,_RB4_interrupt_handler_HIGH+1
   950   0013C0                     
   951                           ; BSR set to: 0
   952                           ;MCAL/Interrupt/MCAL_external_interrupt.c: 157:                     RB4_interrupt_handle
      +                          r_LOW = RBX->ext_interrupt_handler_low;
   953   0013C0  503C               	movf	EXTERNAL_INTERRUPT_RBX_INIT@RBX^0,w,c
   954   0013C2  6ED9               	movwf	fsr2l,c
   955   0013C4  6ADA               	clrf	fsr2h,c
   956   0013C6  CFDE F00F          	movff	postinc2,_RB4_interrupt_handler_LOW
   957   0013CA  CFDD F010          	movff	postdec2,_RB4_interrupt_handler_LOW+1
   958                           
   959                           ;MCAL/Interrupt/MCAL_external_interrupt.c: 158:                     break;
   960   0013CE  EF41  F00A         	goto	l534
   961   0013D2                     l535:
   962                           
   963                           ; BSR set to: 0
   964                           ;MCAL/Interrupt/MCAL_external_interrupt.c: 160:                     (IOCBbits.IOCB5 = 1)
      +                          ;
   965   0013D2  8A7D               	bsf	125,5,c	;volatile
   966   0013D4                     
   967                           ; BSR set to: 0
   968                           ;MCAL/Interrupt/MCAL_external_interrupt.c: 161:                     RB5_interrupt_handle
      +                          r_HIGH = RBX->ext_interrupt_handler_high;
   969   0013D4  503C               	movf	EXTERNAL_INTERRUPT_RBX_INIT@RBX^0,w,c
   970   0013D6  6ED9               	movwf	fsr2l,c
   971   0013D8  6ADA               	clrf	fsr2h,c
   972   0013DA  0E02               	movlw	2
   973   0013DC  26D9               	addwf	fsr2l,f,c
   974   0013DE  CFDE F009          	movff	postinc2,_RB5_interrupt_handler_HIGH
   975   0013E2  CFDD F00A          	movff	postdec2,_RB5_interrupt_handler_HIGH+1
   976   0013E6                     
   977                           ; BSR set to: 0
   978                           ;MCAL/Interrupt/MCAL_external_interrupt.c: 162:                     RB5_interrupt_handle
      +                          r_LOW = RBX->ext_interrupt_handler_low;
   979   0013E6  503C               	movf	EXTERNAL_INTERRUPT_RBX_INIT@RBX^0,w,c
   980   0013E8  6ED9               	movwf	fsr2l,c
   981   0013EA  6ADA               	clrf	fsr2h,c
   982   0013EC  CFDE F00B          	movff	postinc2,_RB5_interrupt_handler_LOW
   983   0013F0  CFDD F00C          	movff	postdec2,_RB5_interrupt_handler_LOW+1
   984                           
   985                           ;MCAL/Interrupt/MCAL_external_interrupt.c: 163:                     break;
   986   0013F4  EF41  F00A         	goto	l534
   987   0013F8                     l536:
   988                           
   989                           ; BSR set to: 0
   990                           ;MCAL/Interrupt/MCAL_external_interrupt.c: 165:                     (IOCBbits.IOCB6 = 1)
      +                          ;
   991   0013F8  8C7D               	bsf	125,6,c	;volatile
   992   0013FA                     
   993                           ; BSR set to: 0
   994                           ;MCAL/Interrupt/MCAL_external_interrupt.c: 166:                     RB6_interrupt_handle
      +                          r_HIGH = RBX->ext_interrupt_handler_high;
   995   0013FA  503C               	movf	EXTERNAL_INTERRUPT_RBX_INIT@RBX^0,w,c
   996   0013FC  6ED9               	movwf	fsr2l,c
   997   0013FE  6ADA               	clrf	fsr2h,c
   998   001400  0E02               	movlw	2
   999   001402  26D9               	addwf	fsr2l,f,c
  1000   001404  CFDE F005          	movff	postinc2,_RB6_interrupt_handler_HIGH
  1001   001408  CFDD F006          	movff	postdec2,_RB6_interrupt_handler_HIGH+1
  1002   00140C                     
  1003                           ; BSR set to: 0
  1004                           ;MCAL/Interrupt/MCAL_external_interrupt.c: 167:                     RB6_interrupt_handle
      +                          r_LOW = RBX->ext_interrupt_handler_low;
  1005   00140C  503C               	movf	EXTERNAL_INTERRUPT_RBX_INIT@RBX^0,w,c
  1006   00140E  6ED9               	movwf	fsr2l,c
  1007   001410  6ADA               	clrf	fsr2h,c
  1008   001412  CFDE F007          	movff	postinc2,_RB6_interrupt_handler_LOW
  1009   001416  CFDD F008          	movff	postdec2,_RB6_interrupt_handler_LOW+1
  1010                           
  1011                           ;MCAL/Interrupt/MCAL_external_interrupt.c: 168:                     break;
  1012   00141A  EF41  F00A         	goto	l534
  1013   00141E                     l537:
  1014                           
  1015                           ; BSR set to: 0
  1016                           ;MCAL/Interrupt/MCAL_external_interrupt.c: 170:                     (IOCBbits.IOCB7 = 1)
      +                          ;
  1017   00141E  8E7D               	bsf	125,7,c	;volatile
  1018   001420                     
  1019                           ; BSR set to: 0
  1020                           ;MCAL/Interrupt/MCAL_external_interrupt.c: 171:                     RB7_interrupt_handle
      +                          r_HIGH = RBX->ext_interrupt_handler_high;
  1021   001420  503C               	movf	EXTERNAL_INTERRUPT_RBX_INIT@RBX^0,w,c
  1022   001422  6ED9               	movwf	fsr2l,c
  1023   001424  6ADA               	clrf	fsr2h,c
  1024   001426  0E02               	movlw	2
  1025   001428  26D9               	addwf	fsr2l,f,c
  1026   00142A  CFDE F001          	movff	postinc2,_RB7_interrupt_handler_HIGH
  1027   00142E  CFDD F002          	movff	postdec2,_RB7_interrupt_handler_HIGH+1
  1028   001432                     
  1029                           ; BSR set to: 0
  1030                           ;MCAL/Interrupt/MCAL_external_interrupt.c: 172:                     RB7_interrupt_handle
      +                          r_LOW = RBX->ext_interrupt_handler_low;
  1031   001432  503C               	movf	EXTERNAL_INTERRUPT_RBX_INIT@RBX^0,w,c
  1032   001434  6ED9               	movwf	fsr2l,c
  1033   001436  6ADA               	clrf	fsr2h,c
  1034   001438  CFDE F003          	movff	postinc2,_RB7_interrupt_handler_LOW
  1035   00143C  CFDD F004          	movff	postdec2,_RB7_interrupt_handler_LOW+1
  1036                           
  1037                           ;MCAL/Interrupt/MCAL_external_interrupt.c: 173:                     break;
  1038   001440  EF41  F00A         	goto	l534
  1039   001444                     l4534:
  1040                           
  1041                           ; BSR set to: 0
  1042                           ;MCAL/Interrupt/MCAL_external_interrupt.c: 175:                     Retval = E_NOT_OK;
  1043   001444  0E00               	movlw	0
  1044   001446  6F9C               	movwf	EXTERNAL_INTERRUPT_RBX_INIT@Retval& (0+255),b
  1045                           
  1046                           ;MCAL/Interrupt/MCAL_external_interrupt.c: 176:                     break;
  1047   001448  EF41  F00A         	goto	l534
  1048   00144C                     l4538:
  1049                           
  1050                           ; BSR set to: 0
  1051   00144C  503C               	movf	EXTERNAL_INTERRUPT_RBX_INIT@RBX^0,w,c
  1052   00144E  6ED9               	movwf	fsr2l,c
  1053   001450  6ADA               	clrf	fsr2h,c
  1054   001452  0E04               	movlw	4
  1055   001454  26D9               	addwf	fsr2l,f,c
  1056   001456  30DF               	rrcf	223,w,c
  1057   001458  32E8               	rrcf	wreg,f,c
  1058   00145A  32E8               	rrcf	wreg,f,c
  1059   00145C  0B07               	andlw	7
  1060                           
  1061                           ; Switch size 1, requested type "simple"
  1062                           ; Number of cases is 4, Range of values is 4 to 7
  1063                           ; switch strategies available:
  1064                           ; Name         Instructions Cycles
  1065                           ; simple_byte           13     7 (average)
  1066                           ;	Chosen strategy is simple_byte
  1067   00145E  0A04               	xorlw	4	; case 4
  1068   001460  B4D8               	btfsc	status,2,c
  1069   001462  EFD6  F009         	goto	l533
  1070   001466  0A01               	xorlw	1	; case 5
  1071   001468  B4D8               	btfsc	status,2,c
  1072   00146A  EFE9  F009         	goto	l535
  1073   00146E  0A03               	xorlw	3	; case 6
  1074   001470  B4D8               	btfsc	status,2,c
  1075   001472  EFFC  F009         	goto	l536
  1076   001476  0A01               	xorlw	1	; case 7
  1077   001478  B4D8               	btfsc	status,2,c
  1078   00147A  EF0F  F00A         	goto	l537
  1079   00147E  EF22  F00A         	goto	l4534
  1080   001482                     l534:
  1081                           
  1082                           ; BSR set to: 0
  1083                           ;MCAL/Interrupt/MCAL_external_interrupt.c: 178:         (INTCONbits.RBIE = 1);
  1084   001482  86F2               	bsf	242,3,c	;volatile
  1085   001484                     l4540:
  1086                           
  1087                           ; BSR set to: 0
  1088                           ;MCAL/Interrupt/MCAL_external_interrupt.c: 180:     return Retval;
  1089   001484  519C               	movf	EXTERNAL_INTERRUPT_RBX_INIT@Retval& (0+255),w,b
  1090   001486                     
  1091                           ; BSR set to: 0
  1092   001486  0012               	return		;funcret
  1093   001488                     __end_of_EXTERNAL_INTERRUPT_RBX_INIT:
  1094                           	callstack 0
  1095                           
  1096 ;; *************** function _Application_intialize *****************
  1097 ;; Defined at:
  1098 ;;		line 95 in file "Drivers_Main.c"
  1099 ;; Parameters:    Size  Location     Type
  1100 ;;		None
  1101 ;; Auto vars:     Size  Location     Type
  1102 ;;		None
  1103 ;; Return value:  Size  Location     Type
  1104 ;;                  1    wreg      void 
  1105 ;; Registers used:
  1106 ;;		wreg, fsr2l, fsr2h, status,2, status,0, prodl, prodh, cstack
  1107 ;; Tracked objects:
  1108 ;;		On entry : 0/0
  1109 ;;		On exit  : 0/0
  1110 ;;		Unchanged: 0/0
  1111 ;; Data sizes:     COMRAM   BANK0   BANK1   BANK2   BANK3   BANK4   BANK5   BANK6   BANK7   BANK8   BANK9  BANK10  BANK1
      +1  BANK12  BANK13  BANK14  BANK15
  1112 ;;      Params:         0       0       0       0       0       0       0       0       0       0       0       0       
      +0       0       0       0       0
  1113 ;;      Locals:         0       0       0       0       0       0       0       0       0       0       0       0       
      +0       0       0       0       0
  1114 ;;      Temps:          0       0       0       0       0       0       0       0       0       0       0       0       
      +0       0       0       0       0
  1115 ;;      Totals:         0       0       0       0       0       0       0       0       0       0       0       0       
      +0       0       0       0       0
  1116 ;;Total ram usage:        0 bytes
  1117 ;; Hardware stack levels used: 1
  1118 ;; Hardware stack levels required when called: 10
  1119 ;; This function calls:
  1120 ;;		_ECU_LAYER_INITIALIZE
  1121 ;; This function is called by:
  1122 ;;		_main
  1123 ;; This function uses a non-reentrant model
  1124 ;;
  1125                           
  1126                           	psect	text3
  1127   001DD6                     __ptext3:
  1128                           	callstack 0
  1129   001DD6                     _Application_intialize:
  1130                           	callstack 20
  1131   001DD6                     
  1132                           ;Drivers_Main.c: 96:     ECU_LAYER_INITIALIZE();
  1133   001DD6  ECA9  F00E         	call	_ECU_LAYER_INITIALIZE	;wreg free
  1134   001DDA  0012               	return		;funcret
  1135   001DDC                     __end_of_Application_intialize:
  1136                           	callstack 0
  1137                           
  1138 ;; *************** function _ECU_LAYER_INITIALIZE *****************
  1139 ;; Defined at:
  1140 ;;		line 96 in file "ECUAL/ECU_INIT.c"
  1141 ;; Parameters:    Size  Location     Type
  1142 ;;		None
  1143 ;; Auto vars:     Size  Location     Type
  1144 ;;  Ret             1    0        enum E3654
  1145 ;; Return value:  Size  Location     Type
  1146 ;;                  1    wreg      void 
  1147 ;; Registers used:
  1148 ;;		wreg, fsr2l, fsr2h, status,2, status,0, prodl, prodh, cstack
  1149 ;; Tracked objects:
  1150 ;;		On entry : 0/0
  1151 ;;		On exit  : 0/0
  1152 ;;		Unchanged: 0/0
  1153 ;; Data sizes:     COMRAM   BANK0   BANK1   BANK2   BANK3   BANK4   BANK5   BANK6   BANK7   BANK8   BANK9  BANK10  BANK1
      +1  BANK12  BANK13  BANK14  BANK15
  1154 ;;      Params:         0       0       0       0       0       0       0       0       0       0       0       0       
      +0       0       0       0       0
  1155 ;;      Locals:         0       0       0       0       0       0       0       0       0       0       0       0       
      +0       0       0       0       0
  1156 ;;      Temps:          0       0       0       0       0       0       0       0       0       0       0       0       
      +0       0       0       0       0
  1157 ;;      Totals:         0       0       0       0       0       0       0       0       0       0       0       0       
      +0       0       0       0       0
  1158 ;;Total ram usage:        0 bytes
  1159 ;; Hardware stack levels used: 1
  1160 ;; Hardware stack levels required when called: 9
  1161 ;; This function calls:
  1162 ;;		_LCD_4BIT_INITIALIZE
  1163 ;;		_LCD_8BIT_INITIALIZE
  1164 ;; This function is called by:
  1165 ;;		_Application_intialize
  1166 ;; This function uses a non-reentrant model
  1167 ;;
  1168                           
  1169                           	psect	text4
  1170   001D52                     __ptext4:
  1171                           	callstack 0
  1172   001D52                     _ECU_LAYER_INITIALIZE:
  1173                           	callstack 20
  1174   001D52  0E96               	movlw	low _lcd1
  1175   001D54  0100               	movlb	0	; () banked
  1176   001D56  6FA6               	movwf	LCD_4BIT_INITIALIZE@lcd& (0+255),b
  1177   001D58  ECA5  F008         	call	_LCD_4BIT_INITIALIZE	;wreg free
  1178   001D5C  0E74               	movlw	low _lcd2
  1179   001D5E  0100               	movlb	0	; () banked
  1180   001D60  6FA5               	movwf	LCD_8BIT_INITIALIZE@lcd& (0+255),b
  1181   001D62  EC0B  F008         	call	_LCD_8BIT_INITIALIZE	;wreg free
  1182   001D66  0012               	return		;funcret
  1183   001D68                     __end_of_ECU_LAYER_INITIALIZE:
  1184                           	callstack 0
  1185                           
  1186 ;; *************** function _LCD_8BIT_INITIALIZE *****************
  1187 ;; Defined at:
  1188 ;;		line 227 in file "ECUAL/CHR_LCD/ECU_CHR_LCD.c"
  1189 ;; Parameters:    Size  Location     Type
  1190 ;;  lcd             1    9[BANK0 ] PTR const struct .
  1191 ;;		 -> lcd2(10), 
  1192 ;; Auto vars:     Size  Location     Type
  1193 ;;  i               2   11[BANK0 ] int 
  1194 ;;  Retval          1   13[BANK0 ] enum E3654
  1195 ;; Return value:  Size  Location     Type
  1196 ;;                  1    wreg      enum E3654
  1197 ;; Registers used:
  1198 ;;		wreg, fsr2l, fsr2h, status,2, status,0, prodl, prodh, cstack
  1199 ;; Tracked objects:
  1200 ;;		On entry : 0/0
  1201 ;;		On exit  : 0/0
  1202 ;;		Unchanged: 0/0
  1203 ;; Data sizes:     COMRAM   BANK0   BANK1   BANK2   BANK3   BANK4   BANK5   BANK6   BANK7   BANK8   BANK9  BANK10  BANK1
      +1  BANK12  BANK13  BANK14  BANK15
  1204 ;;      Params:         0       1       0       0       0       0       0       0       0       0       0       0       
      +0       0       0       0       0
  1205 ;;      Locals:         0       3       0       0       0       0       0       0       0       0       0       0       
      +0       0       0       0       0
  1206 ;;      Temps:          0       1       0       0       0       0       0       0       0       0       0       0       
      +0       0       0       0       0
  1207 ;;      Totals:         0       5       0       0       0       0       0       0       0       0       0       0       
      +0       0       0       0       0
  1208 ;;Total ram usage:        5 bytes
  1209 ;; Hardware stack levels used: 1
  1210 ;; Hardware stack levels required when called: 8
  1211 ;; This function calls:
  1212 ;;		_GPIO_PIN_INITIALIZE
  1213 ;;		_GPIO_PIN_WRITE_LOGIC
  1214 ;;		_LCD_8BIT_SEND_COMMAND
  1215 ;; This function is called by:
  1216 ;;		_ECU_LAYER_INITIALIZE
  1217 ;; This function uses a non-reentrant model
  1218 ;;
  1219                           
  1220                           	psect	text5
  1221   001016                     __ptext5:
  1222                           	callstack 0
  1223   001016                     _LCD_8BIT_INITIALIZE:
  1224                           	callstack 20
  1225   001016                     
  1226                           ;ECUAL/CHR_LCD/ECU_CHR_LCD.c: 229:     if(((void*)0) == lcd){
  1227   001016  0100               	movlb	0	; () banked
  1228   001018  51A5               	movf	LCD_8BIT_INITIALIZE@lcd& (0+255),w,b
  1229   00101A  A4D8               	btfss	status,2,c
  1230   00101C  EF12  F008         	goto	u3951
  1231   001020  EF14  F008         	goto	u3950
  1232   001024                     u3951:
  1233   001024  EF18  F008         	goto	l4296
  1234   001028                     u3950:
  1235   001028                     
  1236                           ; BSR set to: 0
  1237                           ;ECUAL/CHR_LCD/ECU_CHR_LCD.c: 230:         Retval = E_NOT_OK;
  1238   001028  0E00               	movlw	0
  1239   00102A  6FA9               	movwf	LCD_8BIT_INITIALIZE@Retval& (0+255),b
  1240                           
  1241                           ;ECUAL/CHR_LCD/ECU_CHR_LCD.c: 231:     }
  1242   00102C  EFA3  F008         	goto	l4320
  1243   001030                     l4296:
  1244                           
  1245                           ; BSR set to: 0
  1246                           ;ECUAL/CHR_LCD/ECU_CHR_LCD.c: 233:         Retval = GPIO_PIN_INITIALIZE(&(lcd->RS_PIN));
  1247   001030  C0A5  F09C         	movff	LCD_8BIT_INITIALIZE@lcd,GPIO_PIN_INITIALIZE@_PIN_CONFIG
  1248   001034  ECEA  F00D         	call	_GPIO_PIN_INITIALIZE	;wreg free
  1249   001038  0100               	movlb	0	; () banked
  1250   00103A  6FA9               	movwf	LCD_8BIT_INITIALIZE@Retval& (0+255),b
  1251                           
  1252                           ;ECUAL/CHR_LCD/ECU_CHR_LCD.c: 234:         Retval = GPIO_PIN_INITIALIZE(&(lcd->EN_PIN));
  1253   00103C  29A5               	incf	LCD_8BIT_INITIALIZE@lcd& (0+255),w,b
  1254   00103E  6F9C               	movwf	GPIO_PIN_INITIALIZE@_PIN_CONFIG& (0+255),b
  1255   001040  ECEA  F00D         	call	_GPIO_PIN_INITIALIZE	;wreg free
  1256   001044  0100               	movlb	0	; () banked
  1257   001046  6FA9               	movwf	LCD_8BIT_INITIALIZE@Retval& (0+255),b
  1258   001048                     
  1259                           ; BSR set to: 0
  1260                           ;ECUAL/CHR_LCD/ECU_CHR_LCD.c: 235:         for(int i = 0; i < 8 ; i++){
  1261   001048  0E00               	movlw	0
  1262   00104A  6FA8               	movwf	(LCD_8BIT_INITIALIZE@i+1)& (0+255),b
  1263   00104C  0E00               	movlw	0
  1264   00104E  6FA7               	movwf	LCD_8BIT_INITIALIZE@i& (0+255),b
  1265   001050                     l4304:
  1266                           
  1267                           ; BSR set to: 0
  1268   001050  51A5               	movf	LCD_8BIT_INITIALIZE@lcd& (0+255),w,b
  1269   001052  25A7               	addwf	LCD_8BIT_INITIALIZE@i& (0+255),w,b
  1270   001054  0F02               	addlw	2
  1271   001056  6F9C               	movwf	GPIO_PIN_INITIALIZE@_PIN_CONFIG& (0+255),b
  1272   001058  ECEA  F00D         	call	_GPIO_PIN_INITIALIZE	;wreg free
  1273   00105C                     
  1274                           ;ECUAL/CHR_LCD/ECU_CHR_LCD.c: 237:         }
  1275   00105C  0100               	movlb	0	; () banked
  1276   00105E  4BA7               	infsnz	LCD_8BIT_INITIALIZE@i& (0+255),f,b
  1277   001060  2BA8               	incf	(LCD_8BIT_INITIALIZE@i+1)& (0+255),f,b
  1278   001062                     
  1279                           ; BSR set to: 0
  1280   001062  BFA8               	btfsc	(LCD_8BIT_INITIALIZE@i+1)& (0+255),7,b
  1281   001064  EF3D  F008         	goto	u3961
  1282   001068  51A8               	movf	(LCD_8BIT_INITIALIZE@i+1)& (0+255),w,b
  1283   00106A  E109               	bnz	u3960
  1284   00106C  0E08               	movlw	8
  1285   00106E  5DA7               	subwf	LCD_8BIT_INITIALIZE@i& (0+255),w,b
  1286   001070  A0D8               	btfss	status,0,c
  1287   001072  EF3D  F008         	goto	u3961
  1288   001076  EF3F  F008         	goto	u3960
  1289   00107A                     u3961:
  1290   00107A  EF28  F008         	goto	l4304
  1291   00107E                     u3960:
  1292   00107E                     
  1293                           ; BSR set to: 0
  1294                           ;ECUAL/CHR_LCD/ECU_CHR_LCD.c: 238:         _delay((unsigned long)((20)*(8000000UL/4000.0
      +                          )));
  1295   00107E  0E34               	movlw	52
  1296   001080  0100               	movlb	0	; () banked
  1297   001082  6FA6               	movwf	??_LCD_8BIT_INITIALIZE& (0+255),b
  1298   001084  0EF1               	movlw	241
  1299   001086                     u5197:
  1300   001086  2EE8               	decfsz	wreg,f,c
  1301   001088  D7FE               	bra	u5197
  1302   00108A  2FA6               	decfsz	??_LCD_8BIT_INITIALIZE& (0+255),f,b
  1303   00108C  D7FC               	bra	u5197
  1304   00108E  F000 F000          	nop2	
  1305   001092  C0A5  F035         	movff	LCD_8BIT_INITIALIZE@lcd,GPIO_PIN_WRITE_LOGIC@_PIN_CONFIG
  1306   001096  0E00               	movlw	0
  1307   001098  6E36               	movwf	GPIO_PIN_WRITE_LOGIC@LOGIC^0,c
  1308   00109A  EC44  F00A         	call	_GPIO_PIN_WRITE_LOGIC	;wreg free
  1309   00109E  C0A5  F09E         	movff	LCD_8BIT_INITIALIZE@lcd,LCD_8BIT_SEND_COMMAND@lcd
  1310   0010A2  0E38               	movlw	56
  1311   0010A4  0100               	movlb	0	; () banked
  1312   0010A6  6F9F               	movwf	LCD_8BIT_SEND_COMMAND@command& (0+255),b
  1313   0010A8  EC54  F00B         	call	_LCD_8BIT_SEND_COMMAND	;wreg free
  1314                           
  1315                           ;ECUAL/CHR_LCD/ECU_CHR_LCD.c: 241:         _delay((unsigned long)((5)*(8000000UL/4000.0)
      +                          ));
  1316   0010AC  0E0D               	movlw	13
  1317   0010AE  0100               	movlb	0	; () banked
  1318   0010B0  6FA6               	movwf	??_LCD_8BIT_INITIALIZE& (0+255),b
  1319   0010B2  0EFB               	movlw	251
  1320   0010B4                     u5207:
  1321   0010B4  2EE8               	decfsz	wreg,f,c
  1322   0010B6  D7FE               	bra	u5207
  1323   0010B8  2FA6               	decfsz	??_LCD_8BIT_INITIALIZE& (0+255),f,b
  1324   0010BA  D7FC               	bra	u5207
  1325   0010BC  F000 F000          	nop2	
  1326   0010C0  C0A5  F09E         	movff	LCD_8BIT_INITIALIZE@lcd,LCD_8BIT_SEND_COMMAND@lcd
  1327   0010C4  0E38               	movlw	56
  1328   0010C6  0100               	movlb	0	; () banked
  1329   0010C8  6F9F               	movwf	LCD_8BIT_SEND_COMMAND@command& (0+255),b
  1330   0010CA  EC54  F00B         	call	_LCD_8BIT_SEND_COMMAND	;wreg free
  1331   0010CE                     
  1332                           ;ECUAL/CHR_LCD/ECU_CHR_LCD.c: 243:         _delay((unsigned long)((150)*(8000000UL/40000
      +                          00.0)));
  1333   0010CE  0E64               	movlw	100
  1334   0010D0                     u5217:
  1335   0010D0  2EE8               	decfsz	wreg,f,c
  1336   0010D2  D7FE               	bra	u5217
  1337                           
  1338                           ;ECUAL/CHR_LCD/ECU_CHR_LCD.c: 244:         Retval = LCD_8BIT_SEND_COMMAND(lcd , 0x38);
  1339   0010D4  C0A5  F09E         	movff	LCD_8BIT_INITIALIZE@lcd,LCD_8BIT_SEND_COMMAND@lcd
  1340   0010D8  0E38               	movlw	56
  1341   0010DA  0100               	movlb	0	; () banked
  1342   0010DC  6F9F               	movwf	LCD_8BIT_SEND_COMMAND@command& (0+255),b
  1343   0010DE  EC54  F00B         	call	_LCD_8BIT_SEND_COMMAND	;wreg free
  1344   0010E2  0100               	movlb	0	; () banked
  1345   0010E4  6FA9               	movwf	LCD_8BIT_INITIALIZE@Retval& (0+255),b
  1346                           
  1347                           ;ECUAL/CHR_LCD/ECU_CHR_LCD.c: 246:         Retval = LCD_8BIT_SEND_COMMAND(lcd , 0x01);
  1348   0010E6  C0A5  F09E         	movff	LCD_8BIT_INITIALIZE@lcd,LCD_8BIT_SEND_COMMAND@lcd
  1349   0010EA  0E01               	movlw	1
  1350   0010EC  6F9F               	movwf	LCD_8BIT_SEND_COMMAND@command& (0+255),b
  1351   0010EE  EC54  F00B         	call	_LCD_8BIT_SEND_COMMAND	;wreg free
  1352   0010F2  0100               	movlb	0	; () banked
  1353   0010F4  6FA9               	movwf	LCD_8BIT_INITIALIZE@Retval& (0+255),b
  1354                           
  1355                           ;ECUAL/CHR_LCD/ECU_CHR_LCD.c: 247:         Retval = LCD_8BIT_SEND_COMMAND(lcd , 0x02);
  1356   0010F6  C0A5  F09E         	movff	LCD_8BIT_INITIALIZE@lcd,LCD_8BIT_SEND_COMMAND@lcd
  1357   0010FA  0E02               	movlw	2
  1358   0010FC  6F9F               	movwf	LCD_8BIT_SEND_COMMAND@command& (0+255),b
  1359   0010FE  EC54  F00B         	call	_LCD_8BIT_SEND_COMMAND	;wreg free
  1360   001102  0100               	movlb	0	; () banked
  1361   001104  6FA9               	movwf	LCD_8BIT_INITIALIZE@Retval& (0+255),b
  1362                           
  1363                           ;ECUAL/CHR_LCD/ECU_CHR_LCD.c: 248:         Retval = LCD_8BIT_SEND_COMMAND(lcd , 0x06);
  1364   001106  C0A5  F09E         	movff	LCD_8BIT_INITIALIZE@lcd,LCD_8BIT_SEND_COMMAND@lcd
  1365   00110A  0E06               	movlw	6
  1366   00110C  6F9F               	movwf	LCD_8BIT_SEND_COMMAND@command& (0+255),b
  1367   00110E  EC54  F00B         	call	_LCD_8BIT_SEND_COMMAND	;wreg free
  1368   001112  0100               	movlb	0	; () banked
  1369   001114  6FA9               	movwf	LCD_8BIT_INITIALIZE@Retval& (0+255),b
  1370                           
  1371                           ;ECUAL/CHR_LCD/ECU_CHR_LCD.c: 249:         Retval = LCD_8BIT_SEND_COMMAND(lcd , 0x0C);
  1372   001116  C0A5  F09E         	movff	LCD_8BIT_INITIALIZE@lcd,LCD_8BIT_SEND_COMMAND@lcd
  1373   00111A  0E0C               	movlw	12
  1374   00111C  6F9F               	movwf	LCD_8BIT_SEND_COMMAND@command& (0+255),b
  1375   00111E  EC54  F00B         	call	_LCD_8BIT_SEND_COMMAND	;wreg free
  1376   001122  0100               	movlb	0	; () banked
  1377   001124  6FA9               	movwf	LCD_8BIT_INITIALIZE@Retval& (0+255),b
  1378                           
  1379                           ;ECUAL/CHR_LCD/ECU_CHR_LCD.c: 250:         Retval = LCD_8BIT_SEND_COMMAND(lcd , 0x38);
  1380   001126  C0A5  F09E         	movff	LCD_8BIT_INITIALIZE@lcd,LCD_8BIT_SEND_COMMAND@lcd
  1381   00112A  0E38               	movlw	56
  1382   00112C  6F9F               	movwf	LCD_8BIT_SEND_COMMAND@command& (0+255),b
  1383   00112E  EC54  F00B         	call	_LCD_8BIT_SEND_COMMAND	;wreg free
  1384   001132  0100               	movlb	0	; () banked
  1385   001134  6FA9               	movwf	LCD_8BIT_INITIALIZE@Retval& (0+255),b
  1386                           
  1387                           ;ECUAL/CHR_LCD/ECU_CHR_LCD.c: 251:         Retval = LCD_8BIT_SEND_COMMAND(lcd , 0x80);
  1388   001136  C0A5  F09E         	movff	LCD_8BIT_INITIALIZE@lcd,LCD_8BIT_SEND_COMMAND@lcd
  1389   00113A  0E80               	movlw	128
  1390   00113C  6F9F               	movwf	LCD_8BIT_SEND_COMMAND@command& (0+255),b
  1391   00113E  EC54  F00B         	call	_LCD_8BIT_SEND_COMMAND	;wreg free
  1392   001142  0100               	movlb	0	; () banked
  1393   001144  6FA9               	movwf	LCD_8BIT_INITIALIZE@Retval& (0+255),b
  1394   001146                     l4320:
  1395                           
  1396                           ; BSR set to: 0
  1397                           ;ECUAL/CHR_LCD/ECU_CHR_LCD.c: 253:     return Retval;
  1398   001146  51A9               	movf	LCD_8BIT_INITIALIZE@Retval& (0+255),w,b
  1399   001148                     
  1400                           ; BSR set to: 0
  1401   001148  0012               	return		;funcret
  1402   00114A                     __end_of_LCD_8BIT_INITIALIZE:
  1403                           	callstack 0
  1404                           
  1405 ;; *************** function _LCD_8BIT_SEND_COMMAND *****************
  1406 ;; Defined at:
  1407 ;;		line 256 in file "ECUAL/CHR_LCD/ECU_CHR_LCD.c"
  1408 ;; Parameters:    Size  Location     Type
  1409 ;;  lcd             1    2[BANK0 ] PTR const struct .
  1410 ;;		 -> lcd2(10), 
  1411 ;;  command         1    3[BANK0 ] unsigned char 
  1412 ;; Auto vars:     Size  Location     Type
  1413 ;;  i               2    7[BANK0 ] int 
  1414 ;;  Retval          1    6[BANK0 ] enum E3654
  1415 ;; Return value:  Size  Location     Type
  1416 ;;                  1    wreg      enum E3654
  1417 ;; Registers used:
  1418 ;;		wreg, fsr2l, fsr2h, status,2, status,0, prodl, prodh, cstack
  1419 ;; Tracked objects:
  1420 ;;		On entry : 0/0
  1421 ;;		On exit  : 0/0
  1422 ;;		Unchanged: 0/0
  1423 ;; Data sizes:     COMRAM   BANK0   BANK1   BANK2   BANK3   BANK4   BANK5   BANK6   BANK7   BANK8   BANK9  BANK10  BANK1
      +1  BANK12  BANK13  BANK14  BANK15
  1424 ;;      Params:         0       2       0       0       0       0       0       0       0       0       0       0       
      +0       0       0       0       0
  1425 ;;      Locals:         0       3       0       0       0       0       0       0       0       0       0       0       
      +0       0       0       0       0
  1426 ;;      Temps:          0       2       0       0       0       0       0       0       0       0       0       0       
      +0       0       0       0       0
  1427 ;;      Totals:         0       7       0       0       0       0       0       0       0       0       0       0       
      +0       0       0       0       0
  1428 ;;Total ram usage:        7 bytes
  1429 ;; Hardware stack levels used: 1
  1430 ;; Hardware stack levels required when called: 7
  1431 ;; This function calls:
  1432 ;;		_GPIO_PIN_WRITE_LOGIC
  1433 ;;		_lcd_8bit_send_enable_signal
  1434 ;; This function is called by:
  1435 ;;		_LCD_8BIT_INITIALIZE
  1436 ;;		_lcd_8bit_set_cursor
  1437 ;;		_LCD_8BIT_SEND_CUSTOM_CHARACTER
  1438 ;; This function uses a non-reentrant model
  1439 ;;
  1440                           
  1441                           	psect	text6
  1442   0016A8                     __ptext6:
  1443                           	callstack 0
  1444   0016A8                     _LCD_8BIT_SEND_COMMAND:
  1445                           	callstack 20
  1446   0016A8                     
  1447                           ;ECUAL/CHR_LCD/ECU_CHR_LCD.c: 258:     if(((void*)0) == lcd){
  1448   0016A8  0100               	movlb	0	; () banked
  1449   0016AA  519E               	movf	LCD_8BIT_SEND_COMMAND@lcd& (0+255),w,b
  1450   0016AC  A4D8               	btfss	status,2,c
  1451   0016AE  EF5B  F00B         	goto	u3861
  1452   0016B2  EF5D  F00B         	goto	u3860
  1453   0016B6                     u3861:
  1454   0016B6  EF61  F00B         	goto	l4200
  1455   0016BA                     u3860:
  1456   0016BA                     
  1457                           ; BSR set to: 0
  1458                           ;ECUAL/CHR_LCD/ECU_CHR_LCD.c: 259:         Retval = E_NOT_OK;
  1459   0016BA  0E00               	movlw	0
  1460   0016BC  6FA2               	movwf	LCD_8BIT_SEND_COMMAND@Retval& (0+255),b
  1461                           
  1462                           ;ECUAL/CHR_LCD/ECU_CHR_LCD.c: 260:     }
  1463   0016BE  EF99  F00B         	goto	l4216
  1464   0016C2                     l4200:
  1465                           
  1466                           ; BSR set to: 0
  1467   0016C2  C09E  F035         	movff	LCD_8BIT_SEND_COMMAND@lcd,GPIO_PIN_WRITE_LOGIC@_PIN_CONFIG
  1468   0016C6  0E00               	movlw	0
  1469   0016C8  6E36               	movwf	GPIO_PIN_WRITE_LOGIC@LOGIC^0,c
  1470   0016CA  EC44  F00A         	call	_GPIO_PIN_WRITE_LOGIC	;wreg free
  1471   0016CE                     
  1472                           ;ECUAL/CHR_LCD/ECU_CHR_LCD.c: 263:         for(int i = 0 ; i < 8 ; i++){
  1473   0016CE  0E00               	movlw	0
  1474   0016D0  0100               	movlb	0	; () banked
  1475   0016D2  6FA4               	movwf	(LCD_8BIT_SEND_COMMAND@i+1)& (0+255),b
  1476   0016D4  0E00               	movlw	0
  1477   0016D6  6FA3               	movwf	LCD_8BIT_SEND_COMMAND@i& (0+255),b
  1478   0016D8                     l4208:
  1479                           
  1480                           ; BSR set to: 0
  1481   0016D8  519E               	movf	LCD_8BIT_SEND_COMMAND@lcd& (0+255),w,b
  1482   0016DA  25A3               	addwf	LCD_8BIT_SEND_COMMAND@i& (0+255),w,b
  1483   0016DC  0F02               	addlw	2
  1484   0016DE  6E35               	movwf	GPIO_PIN_WRITE_LOGIC@_PIN_CONFIG^0,c
  1485   0016E0  C0A3  F0A0         	movff	LCD_8BIT_SEND_COMMAND@i,??_LCD_8BIT_SEND_COMMAND
  1486   0016E4  C09F  F0A1         	movff	LCD_8BIT_SEND_COMMAND@command,??_LCD_8BIT_SEND_COMMAND+1
  1487   0016E8  2BA0               	incf	??_LCD_8BIT_SEND_COMMAND& (0+255),f,b
  1488   0016EA  EF79  F00B         	goto	u3874
  1489   0016EE                     u3875:
  1490   0016EE  90D8               	bcf	status,0,c
  1491   0016F0  33A1               	rrcf	(??_LCD_8BIT_SEND_COMMAND+1)& (0+255),f,b
  1492   0016F2                     u3874:
  1493   0016F2  2FA0               	decfsz	??_LCD_8BIT_SEND_COMMAND& (0+255),f,b
  1494   0016F4  EF77  F00B         	goto	u3875
  1495   0016F8  0100               	movlb	0	; () banked
  1496   0016FA  51A1               	movf	(??_LCD_8BIT_SEND_COMMAND+1)& (0+255),w,b
  1497   0016FC  0B01               	andlw	1
  1498   0016FE  6E36               	movwf	GPIO_PIN_WRITE_LOGIC@LOGIC^0,c
  1499   001700  EC44  F00A         	call	_GPIO_PIN_WRITE_LOGIC	;wreg free
  1500   001704                     
  1501                           ;ECUAL/CHR_LCD/ECU_CHR_LCD.c: 265:         }
  1502   001704  0100               	movlb	0	; () banked
  1503   001706  4BA3               	infsnz	LCD_8BIT_SEND_COMMAND@i& (0+255),f,b
  1504   001708  2BA4               	incf	(LCD_8BIT_SEND_COMMAND@i+1)& (0+255),f,b
  1505   00170A                     
  1506                           ; BSR set to: 0
  1507   00170A  BFA4               	btfsc	(LCD_8BIT_SEND_COMMAND@i+1)& (0+255),7,b
  1508   00170C  EF91  F00B         	goto	u3881
  1509   001710  51A4               	movf	(LCD_8BIT_SEND_COMMAND@i+1)& (0+255),w,b
  1510   001712  E109               	bnz	u3880
  1511   001714  0E08               	movlw	8
  1512   001716  5DA3               	subwf	LCD_8BIT_SEND_COMMAND@i& (0+255),w,b
  1513   001718  A0D8               	btfss	status,0,c
  1514   00171A  EF91  F00B         	goto	u3881
  1515   00171E  EF93  F00B         	goto	u3880
  1516   001722                     u3881:
  1517   001722  EF6C  F00B         	goto	l4208
  1518   001726                     u3880:
  1519   001726                     
  1520                           ; BSR set to: 0
  1521                           ;ECUAL/CHR_LCD/ECU_CHR_LCD.c: 266:         Retval = lcd_8bit_send_enable_signal(lcd);
  1522   001726  C09E  F09C         	movff	LCD_8BIT_SEND_COMMAND@lcd,lcd_8bit_send_enable_signal@lcd
  1523   00172A  EC47  F00E         	call	_lcd_8bit_send_enable_signal	;wreg free
  1524   00172E  0100               	movlb	0	; () banked
  1525   001730  6FA2               	movwf	LCD_8BIT_SEND_COMMAND@Retval& (0+255),b
  1526   001732                     l4216:
  1527                           
  1528                           ; BSR set to: 0
  1529                           ;ECUAL/CHR_LCD/ECU_CHR_LCD.c: 268:     return Retval;
  1530   001732  51A2               	movf	LCD_8BIT_SEND_COMMAND@Retval& (0+255),w,b
  1531   001734                     
  1532                           ; BSR set to: 0
  1533   001734  0012               	return		;funcret
  1534   001736                     __end_of_LCD_8BIT_SEND_COMMAND:
  1535                           	callstack 0
  1536                           
  1537 ;; *************** function _lcd_8bit_send_enable_signal *****************
  1538 ;; Defined at:
  1539 ;;		line 38 in file "ECUAL/CHR_LCD/ECU_CHR_LCD.c"
  1540 ;; Parameters:    Size  Location     Type
  1541 ;;  lcd             1    0[BANK0 ] PTR const struct .
  1542 ;;		 -> lcd2(10), 
  1543 ;; Auto vars:     Size  Location     Type
  1544 ;;  Retval          1    1[BANK0 ] enum E3654
  1545 ;; Return value:  Size  Location     Type
  1546 ;;                  1    wreg      enum E3654
  1547 ;; Registers used:
  1548 ;;		wreg, fsr2l, fsr2h, status,2, status,0, prodl, prodh, cstack
  1549 ;; Tracked objects:
  1550 ;;		On entry : 0/0
  1551 ;;		On exit  : 0/0
  1552 ;;		Unchanged: 0/0
  1553 ;; Data sizes:     COMRAM   BANK0   BANK1   BANK2   BANK3   BANK4   BANK5   BANK6   BANK7   BANK8   BANK9  BANK10  BANK1
      +1  BANK12  BANK13  BANK14  BANK15
  1554 ;;      Params:         0       1       0       0       0       0       0       0       0       0       0       0       
      +0       0       0       0       0
  1555 ;;      Locals:         0       1       0       0       0       0       0       0       0       0       0       0       
      +0       0       0       0       0
  1556 ;;      Temps:          0       0       0       0       0       0       0       0       0       0       0       0       
      +0       0       0       0       0
  1557 ;;      Totals:         0       2       0       0       0       0       0       0       0       0       0       0       
      +0       0       0       0       0
  1558 ;;Total ram usage:        2 bytes
  1559 ;; Hardware stack levels used: 1
  1560 ;; Hardware stack levels required when called: 6
  1561 ;; This function calls:
  1562 ;;		_GPIO_PIN_WRITE_LOGIC
  1563 ;; This function is called by:
  1564 ;;		_LCD_8BIT_SEND_COMMAND
  1565 ;;		_LCD_8BIT_SEND_CHARACTER_DATA
  1566 ;; This function uses a non-reentrant model
  1567 ;;
  1568                           
  1569                           	psect	text7
  1570   001C8E                     __ptext7:
  1571                           	callstack 0
  1572   001C8E                     _lcd_8bit_send_enable_signal:
  1573                           	callstack 20
  1574   001C8E                     
  1575                           ;ECUAL/CHR_LCD/ECU_CHR_LCD.c: 40:     if(((void*)0) == lcd){
  1576   001C8E  0100               	movlb	0	; () banked
  1577   001C90  519C               	movf	lcd_8bit_send_enable_signal@lcd& (0+255),w,b
  1578   001C92  A4D8               	btfss	status,2,c
  1579   001C94  EF4E  F00E         	goto	u3821
  1580   001C98  EF50  F00E         	goto	u3820
  1581   001C9C                     u3821:
  1582   001C9C  EF54  F00E         	goto	l4162
  1583   001CA0                     u3820:
  1584   001CA0                     
  1585                           ; BSR set to: 0
  1586                           ;ECUAL/CHR_LCD/ECU_CHR_LCD.c: 41:         Retval = E_NOT_OK;
  1587   001CA0  0E00               	movlw	0
  1588   001CA2  6F9D               	movwf	lcd_8bit_send_enable_signal@Retval& (0+255),b
  1589                           
  1590                           ;ECUAL/CHR_LCD/ECU_CHR_LCD.c: 42:     }
  1591   001CA4  EF67  F00E         	goto	l4168
  1592   001CA8                     l4162:
  1593                           
  1594                           ; BSR set to: 0
  1595   001CA8  299C               	incf	lcd_8bit_send_enable_signal@lcd& (0+255),w,b
  1596   001CAA  6E35               	movwf	GPIO_PIN_WRITE_LOGIC@_PIN_CONFIG^0,c
  1597   001CAC  0E01               	movlw	1
  1598   001CAE  6E36               	movwf	GPIO_PIN_WRITE_LOGIC@LOGIC^0,c
  1599   001CB0  EC44  F00A         	call	_GPIO_PIN_WRITE_LOGIC	;wreg free
  1600   001CB4                     
  1601                           ;ECUAL/CHR_LCD/ECU_CHR_LCD.c: 45:         _delay((unsigned long)((5)*(8000000UL/4000000.
      +                          0)));
  1602   001CB4  0E03               	movlw	3
  1603   001CB6                     u5227:
  1604   001CB6  2EE8               	decfsz	wreg,f,c
  1605   001CB8  D7FE               	bra	u5227
  1606   001CBA  0000               	nop	
  1607   001CBC                     
  1608                           ;ECUAL/CHR_LCD/ECU_CHR_LCD.c: 46:         Retval = GPIO_PIN_WRITE_LOGIC(&(lcd->EN_PIN) ,
      +                           GPIO_LOW);
  1609   001CBC  0100               	movlb	0	; () banked
  1610   001CBE  299C               	incf	lcd_8bit_send_enable_signal@lcd& (0+255),w,b
  1611   001CC0  6E35               	movwf	GPIO_PIN_WRITE_LOGIC@_PIN_CONFIG^0,c
  1612   001CC2  0E00               	movlw	0
  1613   001CC4  6E36               	movwf	GPIO_PIN_WRITE_LOGIC@LOGIC^0,c
  1614   001CC6  EC44  F00A         	call	_GPIO_PIN_WRITE_LOGIC	;wreg free
  1615   001CCA  0100               	movlb	0	; () banked
  1616   001CCC  6F9D               	movwf	lcd_8bit_send_enable_signal@Retval& (0+255),b
  1617   001CCE                     l4168:
  1618                           
  1619                           ; BSR set to: 0
  1620                           ;ECUAL/CHR_LCD/ECU_CHR_LCD.c: 48:     return Retval;
  1621   001CCE  519D               	movf	lcd_8bit_send_enable_signal@Retval& (0+255),w,b
  1622   001CD0                     
  1623                           ; BSR set to: 0
  1624   001CD0  0012               	return		;funcret
  1625   001CD2                     __end_of_lcd_8bit_send_enable_signal:
  1626                           	callstack 0
  1627                           
  1628 ;; *************** function _LCD_4BIT_INITIALIZE *****************
  1629 ;; Defined at:
  1630 ;;		line 111 in file "ECUAL/CHR_LCD/ECU_CHR_LCD.c"
  1631 ;; Parameters:    Size  Location     Type
  1632 ;;  lcd             1   10[BANK0 ] PTR const struct .
  1633 ;;		 -> lcd1(6), 
  1634 ;; Auto vars:     Size  Location     Type
  1635 ;;  i               2   12[BANK0 ] int 
  1636 ;;  Retval          1   14[BANK0 ] enum E3654
  1637 ;; Return value:  Size  Location     Type
  1638 ;;                  1    wreg      enum E3654
  1639 ;; Registers used:
  1640 ;;		wreg, fsr2l, fsr2h, status,2, status,0, prodl, prodh, cstack
  1641 ;; Tracked objects:
  1642 ;;		On entry : 0/0
  1643 ;;		On exit  : 0/0
  1644 ;;		Unchanged: 0/0
  1645 ;; Data sizes:     COMRAM   BANK0   BANK1   BANK2   BANK3   BANK4   BANK5   BANK6   BANK7   BANK8   BANK9  BANK10  BANK1
      +1  BANK12  BANK13  BANK14  BANK15
  1646 ;;      Params:         0       1       0       0       0       0       0       0       0       0       0       0       
      +0       0       0       0       0
  1647 ;;      Locals:         0       3       0       0       0       0       0       0       0       0       0       0       
      +0       0       0       0       0
  1648 ;;      Temps:          0       1       0       0       0       0       0       0       0       0       0       0       
      +0       0       0       0       0
  1649 ;;      Totals:         0       5       0       0       0       0       0       0       0       0       0       0       
      +0       0       0       0       0
  1650 ;;Total ram usage:        5 bytes
  1651 ;; Hardware stack levels used: 1
  1652 ;; Hardware stack levels required when called: 8
  1653 ;; This function calls:
  1654 ;;		_GPIO_PIN_INITIALIZE
  1655 ;;		_LCD_4BIT_SEND_COMMAND
  1656 ;; This function is called by:
  1657 ;;		_ECU_LAYER_INITIALIZE
  1658 ;; This function uses a non-reentrant model
  1659 ;;
  1660                           
  1661                           	psect	text8
  1662   00114A                     __ptext8:
  1663                           	callstack 0
  1664   00114A                     _LCD_4BIT_INITIALIZE:
  1665                           	callstack 20
  1666   00114A                     
  1667                           ;ECUAL/CHR_LCD/ECU_CHR_LCD.c: 113:     if(((void*)0) == lcd){
  1668   00114A  0100               	movlb	0	; () banked
  1669   00114C  51A6               	movf	LCD_4BIT_INITIALIZE@lcd& (0+255),w,b
  1670   00114E  A4D8               	btfss	status,2,c
  1671   001150  EFAC  F008         	goto	u3931
  1672   001154  EFAE  F008         	goto	u3930
  1673   001158                     u3931:
  1674   001158  EFB2  F008         	goto	l4252
  1675   00115C                     u3930:
  1676   00115C                     
  1677                           ; BSR set to: 0
  1678                           ;ECUAL/CHR_LCD/ECU_CHR_LCD.c: 114:         Retval = E_NOT_OK;
  1679   00115C  0E00               	movlw	0
  1680   00115E  6FAA               	movwf	LCD_4BIT_INITIALIZE@Retval& (0+255),b
  1681                           
  1682                           ;ECUAL/CHR_LCD/ECU_CHR_LCD.c: 115:     }
  1683   001160  EF31  F009         	goto	l4288
  1684   001164                     l4252:
  1685                           
  1686                           ; BSR set to: 0
  1687                           ;ECUAL/CHR_LCD/ECU_CHR_LCD.c: 117:         Retval = GPIO_PIN_INITIALIZE(&(lcd->RS_PIN));
  1688   001164  C0A6  F09C         	movff	LCD_4BIT_INITIALIZE@lcd,GPIO_PIN_INITIALIZE@_PIN_CONFIG
  1689   001168  ECEA  F00D         	call	_GPIO_PIN_INITIALIZE	;wreg free
  1690   00116C  0100               	movlb	0	; () banked
  1691   00116E  6FAA               	movwf	LCD_4BIT_INITIALIZE@Retval& (0+255),b
  1692                           
  1693                           ;ECUAL/CHR_LCD/ECU_CHR_LCD.c: 118:         Retval = GPIO_PIN_INITIALIZE(&(lcd->EN_PIN));
  1694   001170  29A6               	incf	LCD_4BIT_INITIALIZE@lcd& (0+255),w,b
  1695   001172  6F9C               	movwf	GPIO_PIN_INITIALIZE@_PIN_CONFIG& (0+255),b
  1696   001174  ECEA  F00D         	call	_GPIO_PIN_INITIALIZE	;wreg free
  1697   001178  0100               	movlb	0	; () banked
  1698   00117A  6FAA               	movwf	LCD_4BIT_INITIALIZE@Retval& (0+255),b
  1699   00117C                     
  1700                           ; BSR set to: 0
  1701                           ;ECUAL/CHR_LCD/ECU_CHR_LCD.c: 119:         for(int i = 0 ; i < 4 ; i++){
  1702   00117C  0E00               	movlw	0
  1703   00117E  6FA9               	movwf	(LCD_4BIT_INITIALIZE@i+1)& (0+255),b
  1704   001180  0E00               	movlw	0
  1705   001182  6FA8               	movwf	LCD_4BIT_INITIALIZE@i& (0+255),b
  1706   001184                     l4260:
  1707                           
  1708                           ; BSR set to: 0
  1709   001184  51A6               	movf	LCD_4BIT_INITIALIZE@lcd& (0+255),w,b
  1710   001186  25A8               	addwf	LCD_4BIT_INITIALIZE@i& (0+255),w,b
  1711   001188  0F02               	addlw	2
  1712   00118A  6F9C               	movwf	GPIO_PIN_INITIALIZE@_PIN_CONFIG& (0+255),b
  1713   00118C  ECEA  F00D         	call	_GPIO_PIN_INITIALIZE	;wreg free
  1714   001190                     
  1715                           ;ECUAL/CHR_LCD/ECU_CHR_LCD.c: 121:         }
  1716   001190  0100               	movlb	0	; () banked
  1717   001192  4BA8               	infsnz	LCD_4BIT_INITIALIZE@i& (0+255),f,b
  1718   001194  2BA9               	incf	(LCD_4BIT_INITIALIZE@i+1)& (0+255),f,b
  1719   001196                     
  1720                           ; BSR set to: 0
  1721   001196  BFA9               	btfsc	(LCD_4BIT_INITIALIZE@i+1)& (0+255),7,b
  1722   001198  EFD7  F008         	goto	u3941
  1723   00119C  51A9               	movf	(LCD_4BIT_INITIALIZE@i+1)& (0+255),w,b
  1724   00119E  E109               	bnz	u3940
  1725   0011A0  0E04               	movlw	4
  1726   0011A2  5DA8               	subwf	LCD_4BIT_INITIALIZE@i& (0+255),w,b
  1727   0011A4  A0D8               	btfss	status,0,c
  1728   0011A6  EFD7  F008         	goto	u3941
  1729   0011AA  EFD9  F008         	goto	u3940
  1730   0011AE                     u3941:
  1731   0011AE  EFC2  F008         	goto	l4260
  1732   0011B2                     u3940:
  1733   0011B2                     
  1734                           ; BSR set to: 0
  1735                           ;ECUAL/CHR_LCD/ECU_CHR_LCD.c: 122:         _delay((unsigned long)((20)*(8000000UL/4000.0
      +                          )));
  1736   0011B2  0E34               	movlw	52
  1737   0011B4  0100               	movlb	0	; () banked
  1738   0011B6  6FA7               	movwf	??_LCD_4BIT_INITIALIZE& (0+255),b
  1739   0011B8  0EF1               	movlw	241
  1740   0011BA                     u5237:
  1741   0011BA  2EE8               	decfsz	wreg,f,c
  1742   0011BC  D7FE               	bra	u5237
  1743   0011BE  2FA7               	decfsz	??_LCD_4BIT_INITIALIZE& (0+255),f,b
  1744   0011C0  D7FC               	bra	u5237
  1745   0011C2  F000 F000          	nop2	
  1746   0011C6  C0A6  F0A3         	movff	LCD_4BIT_INITIALIZE@lcd,LCD_4BIT_SEND_COMMAND@lcd
  1747   0011CA  0E38               	movlw	56
  1748   0011CC  0100               	movlb	0	; () banked
  1749   0011CE  6FA4               	movwf	LCD_4BIT_SEND_COMMAND@command& (0+255),b
  1750   0011D0  EC84  F00D         	call	_LCD_4BIT_SEND_COMMAND	;wreg free
  1751   0011D4                     
  1752                           ;ECUAL/CHR_LCD/ECU_CHR_LCD.c: 124:         _delay((unsigned long)((5)*(8000000UL/4000.0)
      +                          ));
  1753   0011D4  0E0D               	movlw	13
  1754   0011D6  0100               	movlb	0	; () banked
  1755   0011D8  6FA7               	movwf	??_LCD_4BIT_INITIALIZE& (0+255),b
  1756   0011DA  0EFB               	movlw	251
  1757   0011DC                     u5247:
  1758   0011DC  2EE8               	decfsz	wreg,f,c
  1759   0011DE  D7FE               	bra	u5247
  1760   0011E0  2FA7               	decfsz	??_LCD_4BIT_INITIALIZE& (0+255),f,b
  1761   0011E2  D7FC               	bra	u5247
  1762   0011E4  F000 F000          	nop2	
  1763   0011E8  C0A6  F0A3         	movff	LCD_4BIT_INITIALIZE@lcd,LCD_4BIT_SEND_COMMAND@lcd
  1764   0011EC  0E38               	movlw	56
  1765   0011EE  0100               	movlb	0	; () banked
  1766   0011F0  6FA4               	movwf	LCD_4BIT_SEND_COMMAND@command& (0+255),b
  1767   0011F2  EC84  F00D         	call	_LCD_4BIT_SEND_COMMAND	;wreg free
  1768   0011F6                     
  1769                           ;ECUAL/CHR_LCD/ECU_CHR_LCD.c: 126:         _delay((unsigned long)((150)*(8000000UL/40000
      +                          00.0)));
  1770   0011F6  0E64               	movlw	100
  1771   0011F8                     u5257:
  1772   0011F8  2EE8               	decfsz	wreg,f,c
  1773   0011FA  D7FE               	bra	u5257
  1774   0011FC  C0A6  F0A3         	movff	LCD_4BIT_INITIALIZE@lcd,LCD_4BIT_SEND_COMMAND@lcd
  1775   001200  0E38               	movlw	56
  1776   001202  0100               	movlb	0	; () banked
  1777   001204  6FA4               	movwf	LCD_4BIT_SEND_COMMAND@command& (0+255),b
  1778   001206  EC84  F00D         	call	_LCD_4BIT_SEND_COMMAND	;wreg free
  1779   00120A  C0A6  F0A3         	movff	LCD_4BIT_INITIALIZE@lcd,LCD_4BIT_SEND_COMMAND@lcd
  1780   00120E  0E01               	movlw	1
  1781   001210  0100               	movlb	0	; () banked
  1782   001212  6FA4               	movwf	LCD_4BIT_SEND_COMMAND@command& (0+255),b
  1783   001214  EC84  F00D         	call	_LCD_4BIT_SEND_COMMAND	;wreg free
  1784   001218  C0A6  F0A3         	movff	LCD_4BIT_INITIALIZE@lcd,LCD_4BIT_SEND_COMMAND@lcd
  1785   00121C  0E02               	movlw	2
  1786   00121E  0100               	movlb	0	; () banked
  1787   001220  6FA4               	movwf	LCD_4BIT_SEND_COMMAND@command& (0+255),b
  1788   001222  EC84  F00D         	call	_LCD_4BIT_SEND_COMMAND	;wreg free
  1789   001226  C0A6  F0A3         	movff	LCD_4BIT_INITIALIZE@lcd,LCD_4BIT_SEND_COMMAND@lcd
  1790   00122A  0E06               	movlw	6
  1791   00122C  0100               	movlb	0	; () banked
  1792   00122E  6FA4               	movwf	LCD_4BIT_SEND_COMMAND@command& (0+255),b
  1793   001230  EC84  F00D         	call	_LCD_4BIT_SEND_COMMAND	;wreg free
  1794   001234  C0A6  F0A3         	movff	LCD_4BIT_INITIALIZE@lcd,LCD_4BIT_SEND_COMMAND@lcd
  1795   001238  0E0C               	movlw	12
  1796   00123A  0100               	movlb	0	; () banked
  1797   00123C  6FA4               	movwf	LCD_4BIT_SEND_COMMAND@command& (0+255),b
  1798   00123E  EC84  F00D         	call	_LCD_4BIT_SEND_COMMAND	;wreg free
  1799   001242  C0A6  F0A3         	movff	LCD_4BIT_INITIALIZE@lcd,LCD_4BIT_SEND_COMMAND@lcd
  1800   001246  0E28               	movlw	40
  1801   001248  0100               	movlb	0	; () banked
  1802   00124A  6FA4               	movwf	LCD_4BIT_SEND_COMMAND@command& (0+255),b
  1803   00124C  EC84  F00D         	call	_LCD_4BIT_SEND_COMMAND	;wreg free
  1804   001250                     
  1805                           ;ECUAL/CHR_LCD/ECU_CHR_LCD.c: 134:         Retval = LCD_4BIT_SEND_COMMAND(lcd , 0x80);
  1806   001250  C0A6  F0A3         	movff	LCD_4BIT_INITIALIZE@lcd,LCD_4BIT_SEND_COMMAND@lcd
  1807   001254  0E80               	movlw	128
  1808   001256  0100               	movlb	0	; () banked
  1809   001258  6FA4               	movwf	LCD_4BIT_SEND_COMMAND@command& (0+255),b
  1810   00125A  EC84  F00D         	call	_LCD_4BIT_SEND_COMMAND	;wreg free
  1811   00125E  0100               	movlb	0	; () banked
  1812   001260  6FAA               	movwf	LCD_4BIT_INITIALIZE@Retval& (0+255),b
  1813   001262                     l4288:
  1814                           
  1815                           ; BSR set to: 0
  1816                           ;ECUAL/CHR_LCD/ECU_CHR_LCD.c: 136:     return Retval;
  1817   001262  51AA               	movf	LCD_4BIT_INITIALIZE@Retval& (0+255),w,b
  1818   001264                     
  1819                           ; BSR set to: 0
  1820   001264  0012               	return		;funcret
  1821   001266                     __end_of_LCD_4BIT_INITIALIZE:
  1822                           	callstack 0
  1823                           
  1824 ;; *************** function _LCD_4BIT_SEND_COMMAND *****************
  1825 ;; Defined at:
  1826 ;;		line 139 in file "ECUAL/CHR_LCD/ECU_CHR_LCD.c"
  1827 ;; Parameters:    Size  Location     Type
  1828 ;;  lcd             1    7[BANK0 ] PTR const struct .
  1829 ;;		 -> lcd1(6), 
  1830 ;;  command         1    8[BANK0 ] unsigned char 
  1831 ;; Auto vars:     Size  Location     Type
  1832 ;;  Retval          1    9[BANK0 ] enum E3654
  1833 ;; Return value:  Size  Location     Type
  1834 ;;                  1    wreg      enum E3654
  1835 ;; Registers used:
  1836 ;;		wreg, fsr2l, fsr2h, status,2, status,0, prodl, prodh, cstack
  1837 ;; Tracked objects:
  1838 ;;		On entry : 0/0
  1839 ;;		On exit  : 0/0
  1840 ;;		Unchanged: 0/0
  1841 ;; Data sizes:     COMRAM   BANK0   BANK1   BANK2   BANK3   BANK4   BANK5   BANK6   BANK7   BANK8   BANK9  BANK10  BANK1
      +1  BANK12  BANK13  BANK14  BANK15
  1842 ;;      Params:         0       2       0       0       0       0       0       0       0       0       0       0       
      +0       0       0       0       0
  1843 ;;      Locals:         0       1       0       0       0       0       0       0       0       0       0       0       
      +0       0       0       0       0
  1844 ;;      Temps:          0       0       0       0       0       0       0       0       0       0       0       0       
      +0       0       0       0       0
  1845 ;;      Totals:         0       3       0       0       0       0       0       0       0       0       0       0       
      +0       0       0       0       0
  1846 ;;Total ram usage:        3 bytes
  1847 ;; Hardware stack levels used: 1
  1848 ;; Hardware stack levels required when called: 7
  1849 ;; This function calls:
  1850 ;;		_GPIO_PIN_WRITE_LOGIC
  1851 ;;		_lcd_4bit_send_enable_signal
  1852 ;;		_lcd_send_4bits
  1853 ;; This function is called by:
  1854 ;;		_LCD_4BIT_INITIALIZE
  1855 ;;		_lcd_4bit_set_cursor
  1856 ;;		_LCD_4BIT_SEND_CUSTOM_CHARACTER
  1857 ;; This function uses a non-reentrant model
  1858 ;;
  1859                           
  1860                           	psect	text9
  1861   001B08                     __ptext9:
  1862                           	callstack 0
  1863   001B08                     _LCD_4BIT_SEND_COMMAND:
  1864                           	callstack 20
  1865   001B08                     
  1866                           ;ECUAL/CHR_LCD/ECU_CHR_LCD.c: 141:     if(((void*)0) == lcd){
  1867   001B08  0100               	movlb	0	; () banked
  1868   001B0A  51A3               	movf	LCD_4BIT_SEND_COMMAND@lcd& (0+255),w,b
  1869   001B0C  A4D8               	btfss	status,2,c
  1870   001B0E  EF8B  F00D         	goto	u3851
  1871   001B12  EF8D  F00D         	goto	u3850
  1872   001B16                     u3851:
  1873   001B16  EF91  F00D         	goto	l4190
  1874   001B1A                     u3850:
  1875   001B1A                     
  1876                           ; BSR set to: 0
  1877                           ;ECUAL/CHR_LCD/ECU_CHR_LCD.c: 142:         Retval = E_NOT_OK;
  1878   001B1A  0E00               	movlw	0
  1879   001B1C  6FA5               	movwf	LCD_4BIT_SEND_COMMAND@Retval& (0+255),b
  1880                           
  1881                           ;ECUAL/CHR_LCD/ECU_CHR_LCD.c: 143:     }
  1882   001B1E  EFB6  F00D         	goto	l4192
  1883   001B22                     l4190:
  1884                           
  1885                           ; BSR set to: 0
  1886                           ;ECUAL/CHR_LCD/ECU_CHR_LCD.c: 145:         Retval = GPIO_PIN_WRITE_LOGIC(&(lcd->RS_PIN) 
      +                          , GPIO_LOW);
  1887   001B22  C0A3  F035         	movff	LCD_4BIT_SEND_COMMAND@lcd,GPIO_PIN_WRITE_LOGIC@_PIN_CONFIG
  1888   001B26  0E00               	movlw	0
  1889   001B28  6E36               	movwf	GPIO_PIN_WRITE_LOGIC@LOGIC^0,c
  1890   001B2A  EC44  F00A         	call	_GPIO_PIN_WRITE_LOGIC	;wreg free
  1891   001B2E  0100               	movlb	0	; () banked
  1892   001B30  6FA5               	movwf	LCD_4BIT_SEND_COMMAND@Retval& (0+255),b
  1893                           
  1894                           ;ECUAL/CHR_LCD/ECU_CHR_LCD.c: 146:         Retval = lcd_send_4bits(lcd , (command >> 4))
      +                          ;
  1895   001B32  C0A3  F09C         	movff	LCD_4BIT_SEND_COMMAND@lcd,lcd_send_4bits@lcd
  1896   001B36  39A4               	swapf	LCD_4BIT_SEND_COMMAND@command& (0+255),w,b
  1897   001B38  0B0F               	andlw	15
  1898   001B3A  6F9D               	movwf	lcd_send_4bits@_data_command& (0+255),b
  1899   001B3C  ECD3  F00C         	call	_lcd_send_4bits	;wreg free
  1900   001B40  0100               	movlb	0	; () banked
  1901   001B42  6FA5               	movwf	LCD_4BIT_SEND_COMMAND@Retval& (0+255),b
  1902                           
  1903                           ;ECUAL/CHR_LCD/ECU_CHR_LCD.c: 147:         Retval = lcd_4bit_send_enable_signal(lcd);
  1904   001B44  C0A3  F09C         	movff	LCD_4BIT_SEND_COMMAND@lcd,lcd_4bit_send_enable_signal@lcd
  1905   001B48  EC69  F00E         	call	_lcd_4bit_send_enable_signal	;wreg free
  1906   001B4C  0100               	movlb	0	; () banked
  1907   001B4E  6FA5               	movwf	LCD_4BIT_SEND_COMMAND@Retval& (0+255),b
  1908                           
  1909                           ;ECUAL/CHR_LCD/ECU_CHR_LCD.c: 148:         Retval = lcd_send_4bits(lcd , (command));
  1910   001B50  C0A3  F09C         	movff	LCD_4BIT_SEND_COMMAND@lcd,lcd_send_4bits@lcd
  1911   001B54  C0A4  F09D         	movff	LCD_4BIT_SEND_COMMAND@command,lcd_send_4bits@_data_command
  1912   001B58  ECD3  F00C         	call	_lcd_send_4bits	;wreg free
  1913   001B5C  0100               	movlb	0	; () banked
  1914   001B5E  6FA5               	movwf	LCD_4BIT_SEND_COMMAND@Retval& (0+255),b
  1915                           
  1916                           ;ECUAL/CHR_LCD/ECU_CHR_LCD.c: 149:         Retval = lcd_4bit_send_enable_signal(lcd);
  1917   001B60  C0A3  F09C         	movff	LCD_4BIT_SEND_COMMAND@lcd,lcd_4bit_send_enable_signal@lcd
  1918   001B64  EC69  F00E         	call	_lcd_4bit_send_enable_signal	;wreg free
  1919   001B68  0100               	movlb	0	; () banked
  1920   001B6A  6FA5               	movwf	LCD_4BIT_SEND_COMMAND@Retval& (0+255),b
  1921   001B6C                     l4192:
  1922                           
  1923                           ; BSR set to: 0
  1924                           ;ECUAL/CHR_LCD/ECU_CHR_LCD.c: 151:     return Retval;
  1925   001B6C  51A5               	movf	LCD_4BIT_SEND_COMMAND@Retval& (0+255),w,b
  1926   001B6E                     
  1927                           ; BSR set to: 0
  1928   001B6E  0012               	return		;funcret
  1929   001B70                     __end_of_LCD_4BIT_SEND_COMMAND:
  1930                           	callstack 0
  1931                           
  1932 ;; *************** function _lcd_send_4bits *****************
  1933 ;; Defined at:
  1934 ;;		line 14 in file "ECUAL/CHR_LCD/ECU_CHR_LCD.c"
  1935 ;; Parameters:    Size  Location     Type
  1936 ;;  lcd             1    0[BANK0 ] PTR const struct .
  1937 ;;		 -> lcd1(6), 
  1938 ;;  _data_comman    1    1[BANK0 ] unsigned char 
  1939 ;; Auto vars:     Size  Location     Type
  1940 ;;  i               2    5[BANK0 ] int 
  1941 ;;  Retval          1    4[BANK0 ] enum E3654
  1942 ;; Return value:  Size  Location     Type
  1943 ;;                  1    wreg      enum E3654
  1944 ;; Registers used:
  1945 ;;		wreg, fsr2l, fsr2h, status,2, status,0, prodl, prodh, cstack
  1946 ;; Tracked objects:
  1947 ;;		On entry : 0/0
  1948 ;;		On exit  : 0/0
  1949 ;;		Unchanged: 0/0
  1950 ;; Data sizes:     COMRAM   BANK0   BANK1   BANK2   BANK3   BANK4   BANK5   BANK6   BANK7   BANK8   BANK9  BANK10  BANK1
      +1  BANK12  BANK13  BANK14  BANK15
  1951 ;;      Params:         0       2       0       0       0       0       0       0       0       0       0       0       
      +0       0       0       0       0
  1952 ;;      Locals:         0       3       0       0       0       0       0       0       0       0       0       0       
      +0       0       0       0       0
  1953 ;;      Temps:          0       2       0       0       0       0       0       0       0       0       0       0       
      +0       0       0       0       0
  1954 ;;      Totals:         0       7       0       0       0       0       0       0       0       0       0       0       
      +0       0       0       0       0
  1955 ;;Total ram usage:        7 bytes
  1956 ;; Hardware stack levels used: 1
  1957 ;; Hardware stack levels required when called: 6
  1958 ;; This function calls:
  1959 ;;		_GPIO_PIN_WRITE_LOGIC
  1960 ;; This function is called by:
  1961 ;;		_LCD_4BIT_SEND_COMMAND
  1962 ;;		_LCD_4BIT_SEND_CHARACTER_DATA
  1963 ;; This function uses a non-reentrant model
  1964 ;;
  1965                           
  1966                           	psect	text10
  1967   0019A6                     __ptext10:
  1968                           	callstack 0
  1969   0019A6                     _lcd_send_4bits:
  1970                           	callstack 20
  1971   0019A6                     
  1972                           ;ECUAL/CHR_LCD/ECU_CHR_LCD.c: 16:     if(((void*)0) == lcd){
  1973   0019A6  0100               	movlb	0	; () banked
  1974   0019A8  519C               	movf	lcd_send_4bits@lcd& (0+255),w,b
  1975   0019AA  A4D8               	btfss	status,2,c
  1976   0019AC  EFDA  F00C         	goto	u3781
  1977   0019B0  EFDC  F00C         	goto	u3780
  1978   0019B4                     u3781:
  1979   0019B4  EFE0  F00C         	goto	l4128
  1980   0019B8                     u3780:
  1981   0019B8                     
  1982                           ; BSR set to: 0
  1983                           ;ECUAL/CHR_LCD/ECU_CHR_LCD.c: 17:         Retval = E_NOT_OK;
  1984   0019B8  0E00               	movlw	0
  1985   0019BA  6FA0               	movwf	lcd_send_4bits@Retval& (0+255),b
  1986                           
  1987                           ;ECUAL/CHR_LCD/ECU_CHR_LCD.c: 18:     }
  1988   0019BC  EF0C  F00D         	goto	l4140
  1989   0019C0                     l4128:
  1990                           
  1991                           ; BSR set to: 0
  1992                           ;ECUAL/CHR_LCD/ECU_CHR_LCD.c: 20:         for(int i = 0 ; i < 4 ; i++){
  1993   0019C0  0E00               	movlw	0
  1994   0019C2  6FA2               	movwf	(lcd_send_4bits@i+1)& (0+255),b
  1995   0019C4  0E00               	movlw	0
  1996   0019C6  6FA1               	movwf	lcd_send_4bits@i& (0+255),b
  1997   0019C8                     l4134:
  1998                           
  1999                           ; BSR set to: 0
  2000                           ;ECUAL/CHR_LCD/ECU_CHR_LCD.c: 21:             Retval = GPIO_PIN_WRITE_LOGIC(&(lcd->DATA_
      +                          PINS[i]) , (_data_command >> i) & (uint8)0x01);
  2001   0019C8  519C               	movf	lcd_send_4bits@lcd& (0+255),w,b
  2002   0019CA  25A1               	addwf	lcd_send_4bits@i& (0+255),w,b
  2003   0019CC  0F02               	addlw	2
  2004   0019CE  6E35               	movwf	GPIO_PIN_WRITE_LOGIC@_PIN_CONFIG^0,c
  2005   0019D0  C0A1  F09E         	movff	lcd_send_4bits@i,??_lcd_send_4bits
  2006   0019D4  C09D  F09F         	movff	lcd_send_4bits@_data_command,??_lcd_send_4bits+1
  2007   0019D8  2B9E               	incf	??_lcd_send_4bits& (0+255),f,b
  2008   0019DA  EFF1  F00C         	goto	u3794
  2009   0019DE                     u3795:
  2010   0019DE  90D8               	bcf	status,0,c
  2011   0019E0  339F               	rrcf	(??_lcd_send_4bits+1)& (0+255),f,b
  2012   0019E2                     u3794:
  2013   0019E2  2F9E               	decfsz	??_lcd_send_4bits& (0+255),f,b
  2014   0019E4  EFEF  F00C         	goto	u3795
  2015   0019E8  0100               	movlb	0	; () banked
  2016   0019EA  519F               	movf	(??_lcd_send_4bits+1)& (0+255),w,b
  2017   0019EC  0B01               	andlw	1
  2018   0019EE  6E36               	movwf	GPIO_PIN_WRITE_LOGIC@LOGIC^0,c
  2019   0019F0  EC44  F00A         	call	_GPIO_PIN_WRITE_LOGIC	;wreg free
  2020   0019F4  0100               	movlb	0	; () banked
  2021   0019F6  6FA0               	movwf	lcd_send_4bits@Retval& (0+255),b
  2022   0019F8                     
  2023                           ; BSR set to: 0
  2024                           ;ECUAL/CHR_LCD/ECU_CHR_LCD.c: 22:         }
  2025   0019F8  4BA1               	infsnz	lcd_send_4bits@i& (0+255),f,b
  2026   0019FA  2BA2               	incf	(lcd_send_4bits@i+1)& (0+255),f,b
  2027   0019FC                     
  2028                           ; BSR set to: 0
  2029   0019FC  BFA2               	btfsc	(lcd_send_4bits@i+1)& (0+255),7,b
  2030   0019FE  EF0A  F00D         	goto	u3801
  2031   001A02  51A2               	movf	(lcd_send_4bits@i+1)& (0+255),w,b
  2032   001A04  E109               	bnz	u3800
  2033   001A06  0E04               	movlw	4
  2034   001A08  5DA1               	subwf	lcd_send_4bits@i& (0+255),w,b
  2035   001A0A  A0D8               	btfss	status,0,c
  2036   001A0C  EF0A  F00D         	goto	u3801
  2037   001A10  EF0C  F00D         	goto	u3800
  2038   001A14                     u3801:
  2039   001A14  EFE4  F00C         	goto	l4134
  2040   001A18                     u3800:
  2041   001A18                     l4140:
  2042                           
  2043                           ; BSR set to: 0
  2044                           ;ECUAL/CHR_LCD/ECU_CHR_LCD.c: 24:     return Retval;
  2045   001A18  51A0               	movf	lcd_send_4bits@Retval& (0+255),w,b
  2046   001A1A                     
  2047                           ; BSR set to: 0
  2048   001A1A  0012               	return		;funcret
  2049   001A1C                     __end_of_lcd_send_4bits:
  2050                           	callstack 0
  2051                           
  2052 ;; *************** function _lcd_4bit_send_enable_signal *****************
  2053 ;; Defined at:
  2054 ;;		line 26 in file "ECUAL/CHR_LCD/ECU_CHR_LCD.c"
  2055 ;; Parameters:    Size  Location     Type
  2056 ;;  lcd             1    0[BANK0 ] PTR const struct .
  2057 ;;		 -> lcd1(6), 
  2058 ;; Auto vars:     Size  Location     Type
  2059 ;;  Retval          1    1[BANK0 ] enum E3654
  2060 ;; Return value:  Size  Location     Type
  2061 ;;                  1    wreg      enum E3654
  2062 ;; Registers used:
  2063 ;;		wreg, fsr2l, fsr2h, status,2, status,0, prodl, prodh, cstack
  2064 ;; Tracked objects:
  2065 ;;		On entry : 0/0
  2066 ;;		On exit  : 0/0
  2067 ;;		Unchanged: 0/0
  2068 ;; Data sizes:     COMRAM   BANK0   BANK1   BANK2   BANK3   BANK4   BANK5   BANK6   BANK7   BANK8   BANK9  BANK10  BANK1
      +1  BANK12  BANK13  BANK14  BANK15
  2069 ;;      Params:         0       1       0       0       0       0       0       0       0       0       0       0       
      +0       0       0       0       0
  2070 ;;      Locals:         0       1       0       0       0       0       0       0       0       0       0       0       
      +0       0       0       0       0
  2071 ;;      Temps:          0       0       0       0       0       0       0       0       0       0       0       0       
      +0       0       0       0       0
  2072 ;;      Totals:         0       2       0       0       0       0       0       0       0       0       0       0       
      +0       0       0       0       0
  2073 ;;Total ram usage:        2 bytes
  2074 ;; Hardware stack levels used: 1
  2075 ;; Hardware stack levels required when called: 6
  2076 ;; This function calls:
  2077 ;;		_GPIO_PIN_WRITE_LOGIC
  2078 ;; This function is called by:
  2079 ;;		_LCD_4BIT_SEND_COMMAND
  2080 ;;		_LCD_4BIT_SEND_CHARACTER_DATA
  2081 ;; This function uses a non-reentrant model
  2082 ;;
  2083                           
  2084                           	psect	text11
  2085   001CD2                     __ptext11:
  2086                           	callstack 0
  2087   001CD2                     _lcd_4bit_send_enable_signal:
  2088                           	callstack 20
  2089   001CD2                     
  2090                           ;ECUAL/CHR_LCD/ECU_CHR_LCD.c: 28:     if(((void*)0) == lcd){
  2091   001CD2  0100               	movlb	0	; () banked
  2092   001CD4  519C               	movf	lcd_4bit_send_enable_signal@lcd& (0+255),w,b
  2093   001CD6  A4D8               	btfss	status,2,c
  2094   001CD8  EF70  F00E         	goto	u3811
  2095   001CDC  EF72  F00E         	goto	u3810
  2096   001CE0                     u3811:
  2097   001CE0  EF76  F00E         	goto	l4148
  2098   001CE4                     u3810:
  2099   001CE4                     
  2100                           ; BSR set to: 0
  2101                           ;ECUAL/CHR_LCD/ECU_CHR_LCD.c: 29:         Retval = E_NOT_OK;
  2102   001CE4  0E00               	movlw	0
  2103   001CE6  6F9D               	movwf	lcd_4bit_send_enable_signal@Retval& (0+255),b
  2104                           
  2105                           ;ECUAL/CHR_LCD/ECU_CHR_LCD.c: 30:     }
  2106   001CE8  EF89  F00E         	goto	l4154
  2107   001CEC                     l4148:
  2108                           
  2109                           ; BSR set to: 0
  2110   001CEC  299C               	incf	lcd_4bit_send_enable_signal@lcd& (0+255),w,b
  2111   001CEE  6E35               	movwf	GPIO_PIN_WRITE_LOGIC@_PIN_CONFIG^0,c
  2112   001CF0  0E01               	movlw	1
  2113   001CF2  6E36               	movwf	GPIO_PIN_WRITE_LOGIC@LOGIC^0,c
  2114   001CF4  EC44  F00A         	call	_GPIO_PIN_WRITE_LOGIC	;wreg free
  2115   001CF8                     
  2116                           ;ECUAL/CHR_LCD/ECU_CHR_LCD.c: 33:         _delay((unsigned long)((5)*(8000000UL/4000000.
      +                          0)));
  2117   001CF8  0E03               	movlw	3
  2118   001CFA                     u5267:
  2119   001CFA  2EE8               	decfsz	wreg,f,c
  2120   001CFC  D7FE               	bra	u5267
  2121   001CFE  0000               	nop	
  2122   001D00                     
  2123                           ;ECUAL/CHR_LCD/ECU_CHR_LCD.c: 34:         Retval = GPIO_PIN_WRITE_LOGIC(&(lcd->EN_PIN) ,
      +                           GPIO_LOW);
  2124   001D00  0100               	movlb	0	; () banked
  2125   001D02  299C               	incf	lcd_4bit_send_enable_signal@lcd& (0+255),w,b
  2126   001D04  6E35               	movwf	GPIO_PIN_WRITE_LOGIC@_PIN_CONFIG^0,c
  2127   001D06  0E00               	movlw	0
  2128   001D08  6E36               	movwf	GPIO_PIN_WRITE_LOGIC@LOGIC^0,c
  2129   001D0A  EC44  F00A         	call	_GPIO_PIN_WRITE_LOGIC	;wreg free
  2130   001D0E  0100               	movlb	0	; () banked
  2131   001D10  6F9D               	movwf	lcd_4bit_send_enable_signal@Retval& (0+255),b
  2132   001D12                     l4154:
  2133                           
  2134                           ; BSR set to: 0
  2135                           ;ECUAL/CHR_LCD/ECU_CHR_LCD.c: 36:     return Retval;
  2136   001D12  519D               	movf	lcd_4bit_send_enable_signal@Retval& (0+255),w,b
  2137   001D14                     
  2138                           ; BSR set to: 0
  2139   001D14  0012               	return		;funcret
  2140   001D16                     __end_of_lcd_4bit_send_enable_signal:
  2141                           	callstack 0
  2142                           
  2143 ;; *************** function _GPIO_PIN_INITIALIZE *****************
  2144 ;; Defined at:
  2145 ;;		line 156 in file "MCAL/GPIO/HAL_GPIO.c"
  2146 ;; Parameters:    Size  Location     Type
  2147 ;;  _PIN_CONFIG     1    0[BANK0 ] PTR const struct .
  2148 ;;		 -> lcd2$DATA_PINS(8), lcd2(10), lcd1$DATA_PINS(4), lcd1(6), 
  2149 ;;		 -> RELAY_INITIALIZE@pin(1), LED_INITIALIZE@PIN_OBJ(1), 
  2150 ;; Auto vars:     Size  Location     Type
  2151 ;;  Retval          1    2[BANK0 ] enum E3654
  2152 ;; Return value:  Size  Location     Type
  2153 ;;                  1    wreg      enum E3654
  2154 ;; Registers used:
  2155 ;;		wreg, fsr2l, fsr2h, status,2, status,0, prodl, prodh, cstack
  2156 ;; Tracked objects:
  2157 ;;		On entry : 0/0
  2158 ;;		On exit  : 0/0
  2159 ;;		Unchanged: 0/0
  2160 ;; Data sizes:     COMRAM   BANK0   BANK1   BANK2   BANK3   BANK4   BANK5   BANK6   BANK7   BANK8   BANK9  BANK10  BANK1
      +1  BANK12  BANK13  BANK14  BANK15
  2161 ;;      Params:         0       1       0       0       0       0       0       0       0       0       0       0       
      +0       0       0       0       0
  2162 ;;      Locals:         0       1       0       0       0       0       0       0       0       0       0       0       
      +0       0       0       0       0
  2163 ;;      Temps:          0       1       0       0       0       0       0       0       0       0       0       0       
      +0       0       0       0       0
  2164 ;;      Totals:         0       3       0       0       0       0       0       0       0       0       0       0       
      +0       0       0       0       0
  2165 ;;Total ram usage:        3 bytes
  2166 ;; Hardware stack levels used: 1
  2167 ;; Hardware stack levels required when called: 6
  2168 ;; This function calls:
  2169 ;;		_GPIO_PIN_DIRECTION_INITIALIZE
  2170 ;;		_GPIO_PIN_WRITE_LOGIC
  2171 ;; This function is called by:
  2172 ;;		_LCD_4BIT_INITIALIZE
  2173 ;;		_LCD_8BIT_INITIALIZE
  2174 ;;		_LED_INITIALIZE
  2175 ;;		_SEGMENT_INITIALIZE
  2176 ;;		_DC_MOTOR_INITIALIZE
  2177 ;;		_KEYPAD_INITIALIZE
  2178 ;;		_RELAY_INITIALIZE
  2179 ;; This function uses a non-reentrant model
  2180 ;;
  2181                           
  2182                           	psect	text12
  2183   001BD4                     __ptext12:
  2184                           	callstack 0
  2185   001BD4                     _GPIO_PIN_INITIALIZE:
  2186                           	callstack 23
  2187   001BD4                     
  2188                           ;MCAL/GPIO/HAL_GPIO.c: 158:     if(((void*)0) == _PIN_CONFIG || _PIN_CONFIG->PIN >= 8){
  2189   001BD4  0100               	movlb	0	; () banked
  2190   001BD6  519C               	movf	GPIO_PIN_INITIALIZE@_PIN_CONFIG& (0+255),w,b
  2191   001BD8  B4D8               	btfsc	status,2,c
  2192   001BDA  EFF1  F00D         	goto	u3831
  2193   001BDE  EFF3  F00D         	goto	u3830
  2194   001BE2                     u3831:
  2195   001BE2  EF03  F00E         	goto	l4176
  2196   001BE6                     u3830:
  2197   001BE6                     
  2198                           ; BSR set to: 0
  2199   001BE6  519C               	movf	GPIO_PIN_INITIALIZE@_PIN_CONFIG& (0+255),w,b
  2200   001BE8  6ED9               	movwf	fsr2l,c
  2201   001BEA  6ADA               	clrf	fsr2h,c
  2202   001BEC  30DF               	rrcf	223,w,c
  2203   001BEE  32E8               	rrcf	wreg,f,c
  2204   001BF0  32E8               	rrcf	wreg,f,c
  2205   001BF2  0B07               	andlw	7
  2206   001BF4  6F9D               	movwf	??_GPIO_PIN_INITIALIZE& (0+255),b
  2207   001BF6  0E07               	movlw	7
  2208   001BF8  659D               	cpfsgt	??_GPIO_PIN_INITIALIZE& (0+255),b
  2209   001BFA  EF01  F00E         	goto	u3841
  2210   001BFE  EF03  F00E         	goto	u3840
  2211   001C02                     u3841:
  2212   001C02  EF07  F00E         	goto	l4178
  2213   001C06                     u3840:
  2214   001C06                     l4176:
  2215                           
  2216                           ; BSR set to: 0
  2217                           ;MCAL/GPIO/HAL_GPIO.c: 159:         Retval = E_NOT_OK;
  2218   001C06  0E00               	movlw	0
  2219   001C08  6F9E               	movwf	GPIO_PIN_INITIALIZE@Retval& (0+255),b
  2220                           
  2221                           ;MCAL/GPIO/HAL_GPIO.c: 160:     }
  2222   001C0A  EF1A  F00E         	goto	l4182
  2223   001C0E                     l4178:
  2224                           
  2225                           ; BSR set to: 0
  2226                           ;MCAL/GPIO/HAL_GPIO.c: 162:         GPIO_PIN_DIRECTION_INITIALIZE(_PIN_CONFIG);
  2227   001C0E  C09C  F035         	movff	GPIO_PIN_INITIALIZE@_PIN_CONFIG,GPIO_PIN_DIRECTION_INITIALIZE@_PIN_CONFIG
  2228   001C12  EC33  F009         	call	_GPIO_PIN_DIRECTION_INITIALIZE	;wreg free
  2229                           
  2230                           ;MCAL/GPIO/HAL_GPIO.c: 163:         GPIO_PIN_WRITE_LOGIC(_PIN_CONFIG,_PIN_CONFIG->LOGIC)
      +                          ;
  2231   001C16  C09C  F035         	movff	GPIO_PIN_INITIALIZE@_PIN_CONFIG,GPIO_PIN_WRITE_LOGIC@_PIN_CONFIG
  2232   001C1A  0100               	movlb	0	; () banked
  2233   001C1C  519C               	movf	GPIO_PIN_INITIALIZE@_PIN_CONFIG& (0+255),w,b
  2234   001C1E  6ED9               	movwf	fsr2l,c
  2235   001C20  6ADA               	clrf	fsr2h,c
  2236   001C22  0E00               	movlw	0
  2237   001C24  BEDF               	btfsc	indf2,7,c
  2238   001C26  0E01               	movlw	1
  2239   001C28  6E36               	movwf	GPIO_PIN_WRITE_LOGIC@LOGIC^0,c
  2240   001C2A  EC44  F00A         	call	_GPIO_PIN_WRITE_LOGIC	;wreg free
  2241   001C2E                     
  2242                           ;MCAL/GPIO/HAL_GPIO.c: 164:         Retval = E_OK;
  2243   001C2E  0E01               	movlw	1
  2244   001C30  0100               	movlb	0	; () banked
  2245   001C32  6F9E               	movwf	GPIO_PIN_INITIALIZE@Retval& (0+255),b
  2246   001C34                     l4182:
  2247                           
  2248                           ; BSR set to: 0
  2249                           ;MCAL/GPIO/HAL_GPIO.c: 166:     return Retval;
  2250   001C34  519E               	movf	GPIO_PIN_INITIALIZE@Retval& (0+255),w,b
  2251   001C36                     
  2252                           ; BSR set to: 0
  2253   001C36  0012               	return		;funcret
  2254   001C38                     __end_of_GPIO_PIN_INITIALIZE:
  2255                           	callstack 0
  2256                           
  2257 ;; *************** function _GPIO_PIN_WRITE_LOGIC *****************
  2258 ;; Defined at:
  2259 ;;		line 84 in file "MCAL/GPIO/HAL_GPIO.c"
  2260 ;; Parameters:    Size  Location     Type
  2261 ;;  _PIN_CONFIG     1   19[COMRAM] PTR const struct .
  2262 ;;		 -> lcd2$DATA_PINS(8), lcd2(10), lcd1$DATA_PINS(4), lcd1(6), 
  2263 ;;		 -> RELAY_TURN_OFF@pin(1), RELAY_TURN_ON@pin(1), RELAY_INITIALIZE@pin(1), LED_Turn_OFF@PIN_OBJ(1), 
  2264 ;;		 -> LED_Turn_ON@PIN_OBJ(1), LED_INITIALIZE@PIN_OBJ(1), 
  2265 ;;  LOGIC           1   20[COMRAM] enum E3658
  2266 ;; Auto vars:     Size  Location     Type
  2267 ;;  Retval          1   26[COMRAM] enum E3654
  2268 ;; Return value:  Size  Location     Type
  2269 ;;                  1    wreg      enum E3654
  2270 ;; Registers used:
  2271 ;;		wreg, fsr2l, fsr2h, status,2, status,0, prodl, prodh
  2272 ;; Tracked objects:
  2273 ;;		On entry : 0/0
  2274 ;;		On exit  : 0/0
  2275 ;;		Unchanged: 0/0
  2276 ;; Data sizes:     COMRAM   BANK0   BANK1   BANK2   BANK3   BANK4   BANK5   BANK6   BANK7   BANK8   BANK9  BANK10  BANK1
      +1  BANK12  BANK13  BANK14  BANK15
  2277 ;;      Params:         2       0       0       0       0       0       0       0       0       0       0       0       
      +0       0       0       0       0
  2278 ;;      Locals:         1       0       0       0       0       0       0       0       0       0       0       0       
      +0       0       0       0       0
  2279 ;;      Temps:          5       0       0       0       0       0       0       0       0       0       0       0       
      +0       0       0       0       0
  2280 ;;      Totals:         8       0       0       0       0       0       0       0       0       0       0       0       
      +0       0       0       0       0
  2281 ;;Total ram usage:        8 bytes
  2282 ;; Hardware stack levels used: 1
  2283 ;; Hardware stack levels required when called: 5
  2284 ;; This function calls:
  2285 ;;		Nothing
  2286 ;; This function is called by:
  2287 ;;		_lcd_send_4bits
  2288 ;;		_lcd_4bit_send_enable_signal
  2289 ;;		_lcd_8bit_send_enable_signal
  2290 ;;		_LCD_4BIT_SEND_COMMAND
  2291 ;;		_LCD_8BIT_INITIALIZE
  2292 ;;		_LCD_8BIT_SEND_COMMAND
  2293 ;;		_GPIO_PIN_INITIALIZE
  2294 ;;		_SEGMENT_WRITE_NUMBER
  2295 ;;		_lcd_4bit_set_cursor
  2296 ;;		_lcd_8bit_set_cursor
  2297 ;;		_LCD_4BIT_SEND_CHARACTER_DATA
  2298 ;;		_LCD_8BIT_SEND_CHARACTER_DATA
  2299 ;;		_DC_MOTOR_ROTATE_CW
  2300 ;;		_DC_MOTOR_ROTATE_CCW
  2301 ;;		_DC_MOTOR_STOP
  2302 ;;		_KEYPAD_GET_VALUE
  2303 ;;		_RELAY_TURN_ON
  2304 ;;		_RELAY_TURN_OFF
  2305 ;; This function uses a non-reentrant model
  2306 ;;
  2307                           
  2308                           	psect	text13
  2309   001488                     __ptext13:
  2310                           	callstack 0
  2311   001488                     _GPIO_PIN_WRITE_LOGIC:
  2312                           	callstack 23
  2313   001488                     
  2314                           ;MCAL/GPIO/HAL_GPIO.c: 86:     if(((void*)0) == _PIN_CONFIG || _PIN_CONFIG->PIN >= 8){
  2315   001488  5035               	movf	GPIO_PIN_WRITE_LOGIC@_PIN_CONFIG^0,w,c
  2316   00148A  B4D8               	btfsc	status,2,c
  2317   00148C  EF4A  F00A         	goto	u3691
  2318   001490  EF4C  F00A         	goto	u3690
  2319   001494                     u3691:
  2320   001494  EF5C  F00A         	goto	l4076
  2321   001498                     u3690:
  2322   001498  5035               	movf	GPIO_PIN_WRITE_LOGIC@_PIN_CONFIG^0,w,c
  2323   00149A  6ED9               	movwf	fsr2l,c
  2324   00149C  6ADA               	clrf	fsr2h,c
  2325   00149E  30DF               	rrcf	223,w,c
  2326   0014A0  32E8               	rrcf	wreg,f,c
  2327   0014A2  32E8               	rrcf	wreg,f,c
  2328   0014A4  0B07               	andlw	7
  2329   0014A6  6E37               	movwf	??_GPIO_PIN_WRITE_LOGIC^0,c
  2330   0014A8  0E07               	movlw	7
  2331   0014AA  6437               	cpfsgt	??_GPIO_PIN_WRITE_LOGIC^0,c
  2332   0014AC  EF5A  F00A         	goto	u3701
  2333   0014B0  EF5C  F00A         	goto	u3700
  2334   0014B4                     u3701:
  2335   0014B4  EFB5  F00A         	goto	l4090
  2336   0014B8                     u3700:
  2337   0014B8                     l4076:
  2338                           
  2339                           ;MCAL/GPIO/HAL_GPIO.c: 87:         Retval= E_NOT_OK;
  2340   0014B8  0E00               	movlw	0
  2341   0014BA  6E3C               	movwf	GPIO_PIN_WRITE_LOGIC@Retval^0,c
  2342                           
  2343                           ;MCAL/GPIO/HAL_GPIO.c: 88:     }
  2344   0014BC  EFCA  F00A         	goto	l4092
  2345   0014C0                     l4078:
  2346                           
  2347                           ;MCAL/GPIO/HAL_GPIO.c: 92:                 (*LAT_REG[_PIN_CONFIG->PORT] &= ~(((uint8)0x0
      +                          1) << _PIN_CONFIG->PIN));
  2348   0014C0  5035               	movf	GPIO_PIN_WRITE_LOGIC@_PIN_CONFIG^0,w,c
  2349   0014C2  6ED9               	movwf	fsr2l,c
  2350   0014C4  6ADA               	clrf	fsr2h,c
  2351   0014C6  30DF               	rrcf	223,w,c
  2352   0014C8  32E8               	rrcf	wreg,f,c
  2353   0014CA  32E8               	rrcf	wreg,f,c
  2354   0014CC  0B07               	andlw	7
  2355   0014CE  6E37               	movwf	??_GPIO_PIN_WRITE_LOGIC^0,c
  2356   0014D0  0E01               	movlw	1
  2357   0014D2  6E38               	movwf	(??_GPIO_PIN_WRITE_LOGIC+1)^0,c
  2358   0014D4  2A37               	incf	??_GPIO_PIN_WRITE_LOGIC^0,f,c
  2359   0014D6  EF6F  F00A         	goto	u3714
  2360   0014DA                     u3715:
  2361   0014DA  90D8               	bcf	status,0,c
  2362   0014DC  3638               	rlcf	(??_GPIO_PIN_WRITE_LOGIC+1)^0,f,c
  2363   0014DE                     u3714:
  2364   0014DE  2E37               	decfsz	??_GPIO_PIN_WRITE_LOGIC^0,f,c
  2365   0014E0  EF6D  F00A         	goto	u3715
  2366   0014E4  5038               	movf	(??_GPIO_PIN_WRITE_LOGIC+1)^0,w,c
  2367   0014E6  0AFF               	xorlw	255
  2368   0014E8  6E39               	movwf	(??_GPIO_PIN_WRITE_LOGIC+2)^0,c
  2369   0014EA  5035               	movf	GPIO_PIN_WRITE_LOGIC@_PIN_CONFIG^0,w,c
  2370   0014EC  6ED9               	movwf	fsr2l,c
  2371   0014EE  6ADA               	clrf	fsr2h,c
  2372   0014F0  50DF               	movf	223,w,c
  2373   0014F2  0B07               	andlw	7
  2374   0014F4  0D02               	mullw	2
  2375   0014F6  50F3               	movf	243,w,c
  2376   0014F8  0F3D               	addlw	low _LAT_REG
  2377   0014FA  6ED9               	movwf	fsr2l,c
  2378   0014FC  6ADA               	clrf	fsr2h,c
  2379   0014FE  CFDE F03A          	movff	postinc2,??_GPIO_PIN_WRITE_LOGIC+3
  2380   001502  CFDD F03B          	movff	postdec2,??_GPIO_PIN_WRITE_LOGIC+4
  2381   001506  C03A  FFD9         	movff	??_GPIO_PIN_WRITE_LOGIC+3,fsr2l
  2382   00150A  C03B  FFDA         	movff	??_GPIO_PIN_WRITE_LOGIC+4,fsr2h
  2383   00150E  5039               	movf	(??_GPIO_PIN_WRITE_LOGIC+2)^0,w,c
  2384   001510  16DF               	andwf	indf2,f,c
  2385   001512                     l4080:
  2386                           
  2387                           ;MCAL/GPIO/HAL_GPIO.c: 93:                 Retval = E_OK;
  2388   001512  0E01               	movlw	1
  2389   001514  6E3C               	movwf	GPIO_PIN_WRITE_LOGIC@Retval^0,c
  2390                           
  2391                           ;MCAL/GPIO/HAL_GPIO.c: 94:                 break;
  2392   001516  EFCA  F00A         	goto	l4092
  2393   00151A                     l4082:
  2394                           
  2395                           ;MCAL/GPIO/HAL_GPIO.c: 96:                 (*LAT_REG[_PIN_CONFIG->PORT] |= (((uint8)0x01
      +                          ) << _PIN_CONFIG->PIN));
  2396   00151A  5035               	movf	GPIO_PIN_WRITE_LOGIC@_PIN_CONFIG^0,w,c
  2397   00151C  6ED9               	movwf	fsr2l,c
  2398   00151E  6ADA               	clrf	fsr2h,c
  2399   001520  30DF               	rrcf	223,w,c
  2400   001522  32E8               	rrcf	wreg,f,c
  2401   001524  32E8               	rrcf	wreg,f,c
  2402   001526  0B07               	andlw	7
  2403   001528  6E37               	movwf	??_GPIO_PIN_WRITE_LOGIC^0,c
  2404   00152A  0E01               	movlw	1
  2405   00152C  6E38               	movwf	(??_GPIO_PIN_WRITE_LOGIC+1)^0,c
  2406   00152E  2A37               	incf	??_GPIO_PIN_WRITE_LOGIC^0,f,c
  2407   001530  EF9C  F00A         	goto	u3724
  2408   001534                     u3725:
  2409   001534  90D8               	bcf	status,0,c
  2410   001536  3638               	rlcf	(??_GPIO_PIN_WRITE_LOGIC+1)^0,f,c
  2411   001538                     u3724:
  2412   001538  2E37               	decfsz	??_GPIO_PIN_WRITE_LOGIC^0,f,c
  2413   00153A  EF9A  F00A         	goto	u3725
  2414   00153E  5035               	movf	GPIO_PIN_WRITE_LOGIC@_PIN_CONFIG^0,w,c
  2415   001540  6ED9               	movwf	fsr2l,c
  2416   001542  6ADA               	clrf	fsr2h,c
  2417   001544  50DF               	movf	223,w,c
  2418   001546  0B07               	andlw	7
  2419   001548  0D02               	mullw	2
  2420   00154A  50F3               	movf	243,w,c
  2421   00154C  0F3D               	addlw	low _LAT_REG
  2422   00154E  6ED9               	movwf	fsr2l,c
  2423   001550  6ADA               	clrf	fsr2h,c
  2424   001552  CFDE F039          	movff	postinc2,??_GPIO_PIN_WRITE_LOGIC+2
  2425   001556  CFDD F03A          	movff	postdec2,??_GPIO_PIN_WRITE_LOGIC+3
  2426   00155A  C039  FFD9         	movff	??_GPIO_PIN_WRITE_LOGIC+2,fsr2l
  2427   00155E  C03A  FFDA         	movff	??_GPIO_PIN_WRITE_LOGIC+3,fsr2h
  2428   001562  5038               	movf	(??_GPIO_PIN_WRITE_LOGIC+1)^0,w,c
  2429   001564  12DF               	iorwf	indf2,f,c
  2430   001566  EF89  F00A         	goto	l4080
  2431   00156A                     l4090:
  2432   00156A  5036               	movf	GPIO_PIN_WRITE_LOGIC@LOGIC^0,w,c
  2433   00156C  6E37               	movwf	??_GPIO_PIN_WRITE_LOGIC^0,c
  2434   00156E  6A38               	clrf	(??_GPIO_PIN_WRITE_LOGIC+1)^0,c
  2435                           
  2436                           ; Switch on 2 bytes has been partitioned into a top level switch of size 1, and 1 sub-sw
      +                          itches
  2437                           ; Switch size 1, requested type "simple"
  2438                           ; Number of cases is 1, Range of values is 0 to 0
  2439                           ; switch strategies available:
  2440                           ; Name         Instructions Cycles
  2441                           ; simple_byte            4     3 (average)
  2442                           ;	Chosen strategy is simple_byte
  2443   001570  5038               	movf	(??_GPIO_PIN_WRITE_LOGIC+1)^0,w,c
  2444   001572  0A00               	xorlw	0	; case 0
  2445   001574  B4D8               	btfsc	status,2,c
  2446   001576  EFBF  F00A         	goto	l5122
  2447   00157A  EF5C  F00A         	goto	l4076
  2448   00157E                     l5122:
  2449                           
  2450                           ; Switch size 1, requested type "simple"
  2451                           ; Number of cases is 2, Range of values is 0 to 1
  2452                           ; switch strategies available:
  2453                           ; Name         Instructions Cycles
  2454                           ; simple_byte            7     4 (average)
  2455                           ;	Chosen strategy is simple_byte
  2456   00157E  5037               	movf	??_GPIO_PIN_WRITE_LOGIC^0,w,c
  2457   001580  0A00               	xorlw	0	; case 0
  2458   001582  B4D8               	btfsc	status,2,c
  2459   001584  EF60  F00A         	goto	l4078
  2460   001588  0A01               	xorlw	1	; case 1
  2461   00158A  B4D8               	btfsc	status,2,c
  2462   00158C  EF8D  F00A         	goto	l4082
  2463   001590  EF5C  F00A         	goto	l4076
  2464   001594                     l4092:
  2465                           
  2466                           ;MCAL/GPIO/HAL_GPIO.c: 104:     return Retval;
  2467   001594  503C               	movf	GPIO_PIN_WRITE_LOGIC@Retval^0,w,c
  2468   001596  0012               	return		;funcret
  2469   001598                     __end_of_GPIO_PIN_WRITE_LOGIC:
  2470                           	callstack 0
  2471                           
  2472 ;; *************** function _GPIO_PIN_DIRECTION_INITIALIZE *****************
  2473 ;; Defined at:
  2474 ;;		line 29 in file "MCAL/GPIO/HAL_GPIO.c"
  2475 ;; Parameters:    Size  Location     Type
  2476 ;;  _PIN_CONFIG     1   19[COMRAM] PTR const struct .
  2477 ;;		 -> RB7__(6), RB6__(6), RB5__(6), RB4__(6), 
  2478 ;;		 -> lcd2$DATA_PINS(8), lcd2(10), lcd1$DATA_PINS(4), lcd1(6), 
  2479 ;;		 -> RELAY_INITIALIZE@pin(1), LED_INITIALIZE@PIN_OBJ(1), 
  2480 ;; Auto vars:     Size  Location     Type
  2481 ;;  Retval          1   25[COMRAM] enum E3654
  2482 ;; Return value:  Size  Location     Type
  2483 ;;                  1    wreg      enum E3654
  2484 ;; Registers used:
  2485 ;;		wreg, fsr2l, fsr2h, status,2, status,0, prodl, prodh
  2486 ;; Tracked objects:
  2487 ;;		On entry : 0/0
  2488 ;;		On exit  : 0/0
  2489 ;;		Unchanged: 0/0
  2490 ;; Data sizes:     COMRAM   BANK0   BANK1   BANK2   BANK3   BANK4   BANK5   BANK6   BANK7   BANK8   BANK9  BANK10  BANK1
      +1  BANK12  BANK13  BANK14  BANK15
  2491 ;;      Params:         1       0       0       0       0       0       0       0       0       0       0       0       
      +0       0       0       0       0
  2492 ;;      Locals:         1       0       0       0       0       0       0       0       0       0       0       0       
      +0       0       0       0       0
  2493 ;;      Temps:          5       0       0       0       0       0       0       0       0       0       0       0       
      +0       0       0       0       0
  2494 ;;      Totals:         7       0       0       0       0       0       0       0       0       0       0       0       
      +0       0       0       0       0
  2495 ;;Total ram usage:        7 bytes
  2496 ;; Hardware stack levels used: 1
  2497 ;; Hardware stack levels required when called: 5
  2498 ;; This function calls:
  2499 ;;		Nothing
  2500 ;; This function is called by:
  2501 ;;		_GPIO_PIN_INITIALIZE
  2502 ;;		_EXTERNAL_INTERRUPT_RBX_INIT
  2503 ;;		_BUTTON_INITIALIZE
  2504 ;;		_KEYPAD_INITIALIZE
  2505 ;;		_interrupt_intx_pin_init
  2506 ;;		_interrupt_rbx_pin_init
  2507 ;; This function uses a non-reentrant model
  2508 ;;
  2509                           
  2510                           	psect	text14
  2511   001266                     __ptext14:
  2512                           	callstack 0
  2513   001266                     _GPIO_PIN_DIRECTION_INITIALIZE:
  2514                           	callstack 23
  2515   001266                     
  2516                           ;MCAL/GPIO/HAL_GPIO.c: 31:     if(((void*)0) == _PIN_CONFIG || _PIN_CONFIG->PIN >= 8){
  2517   001266  5035               	movf	GPIO_PIN_DIRECTION_INITIALIZE@_PIN_CONFIG^0,w,c
  2518   001268  B4D8               	btfsc	status,2,c
  2519   00126A  EF39  F009         	goto	u3731
  2520   00126E  EF3B  F009         	goto	u3730
  2521   001272                     u3731:
  2522   001272  EF4B  F009         	goto	l4104
  2523   001276                     u3730:
  2524   001276  5035               	movf	GPIO_PIN_DIRECTION_INITIALIZE@_PIN_CONFIG^0,w,c
  2525   001278  6ED9               	movwf	fsr2l,c
  2526   00127A  6ADA               	clrf	fsr2h,c
  2527   00127C  30DF               	rrcf	223,w,c
  2528   00127E  32E8               	rrcf	wreg,f,c
  2529   001280  32E8               	rrcf	wreg,f,c
  2530   001282  0B07               	andlw	7
  2531   001284  6E36               	movwf	??_GPIO_PIN_DIRECTION_INITIALIZE^0,c
  2532   001286  0E07               	movlw	7
  2533   001288  6436               	cpfsgt	??_GPIO_PIN_DIRECTION_INITIALIZE^0,c
  2534   00128A  EF49  F009         	goto	u3741
  2535   00128E  EF4B  F009         	goto	u3740
  2536   001292                     u3741:
  2537   001292  EFA4  F009         	goto	l4118
  2538   001296                     u3740:
  2539   001296                     l4104:
  2540                           
  2541                           ;MCAL/GPIO/HAL_GPIO.c: 32:         Retval = E_NOT_OK;
  2542   001296  0E00               	movlw	0
  2543   001298  6E3B               	movwf	GPIO_PIN_DIRECTION_INITIALIZE@Retval^0,c
  2544                           
  2545                           ;MCAL/GPIO/HAL_GPIO.c: 33:     }
  2546   00129A  EFBA  F009         	goto	l4120
  2547   00129E                     l4106:
  2548                           
  2549                           ;MCAL/GPIO/HAL_GPIO.c: 37:                 (*TRIS_REG[_PIN_CONFIG->PORT] &= ~(((uint8)0x
      +                          01) << _PIN_CONFIG->PIN));
  2550   00129E  5035               	movf	GPIO_PIN_DIRECTION_INITIALIZE@_PIN_CONFIG^0,w,c
  2551   0012A0  6ED9               	movwf	fsr2l,c
  2552   0012A2  6ADA               	clrf	fsr2h,c
  2553   0012A4  30DF               	rrcf	223,w,c
  2554   0012A6  32E8               	rrcf	wreg,f,c
  2555   0012A8  32E8               	rrcf	wreg,f,c
  2556   0012AA  0B07               	andlw	7
  2557   0012AC  6E36               	movwf	??_GPIO_PIN_DIRECTION_INITIALIZE^0,c
  2558   0012AE  0E01               	movlw	1
  2559   0012B0  6E37               	movwf	(??_GPIO_PIN_DIRECTION_INITIALIZE+1)^0,c
  2560   0012B2  2A36               	incf	??_GPIO_PIN_DIRECTION_INITIALIZE^0,f,c
  2561   0012B4  EF5E  F009         	goto	u3754
  2562   0012B8                     u3755:
  2563   0012B8  90D8               	bcf	status,0,c
  2564   0012BA  3637               	rlcf	(??_GPIO_PIN_DIRECTION_INITIALIZE+1)^0,f,c
  2565   0012BC                     u3754:
  2566   0012BC  2E36               	decfsz	??_GPIO_PIN_DIRECTION_INITIALIZE^0,f,c
  2567   0012BE  EF5C  F009         	goto	u3755
  2568   0012C2  5037               	movf	(??_GPIO_PIN_DIRECTION_INITIALIZE+1)^0,w,c
  2569   0012C4  0AFF               	xorlw	255
  2570   0012C6  6E38               	movwf	(??_GPIO_PIN_DIRECTION_INITIALIZE+2)^0,c
  2571   0012C8  5035               	movf	GPIO_PIN_DIRECTION_INITIALIZE@_PIN_CONFIG^0,w,c
  2572   0012CA  6ED9               	movwf	fsr2l,c
  2573   0012CC  6ADA               	clrf	fsr2h,c
  2574   0012CE  50DF               	movf	223,w,c
  2575   0012D0  0B07               	andlw	7
  2576   0012D2  0D02               	mullw	2
  2577   0012D4  50F3               	movf	243,w,c
  2578   0012D6  0F6A               	addlw	low _TRIS_REG
  2579   0012D8  6ED9               	movwf	fsr2l,c
  2580   0012DA  6ADA               	clrf	fsr2h,c
  2581   0012DC  CFDE F039          	movff	postinc2,??_GPIO_PIN_DIRECTION_INITIALIZE+3
  2582   0012E0  CFDD F03A          	movff	postdec2,??_GPIO_PIN_DIRECTION_INITIALIZE+4
  2583   0012E4  C039  FFD9         	movff	??_GPIO_PIN_DIRECTION_INITIALIZE+3,fsr2l
  2584   0012E8  C03A  FFDA         	movff	??_GPIO_PIN_DIRECTION_INITIALIZE+4,fsr2h
  2585   0012EC  5038               	movf	(??_GPIO_PIN_DIRECTION_INITIALIZE+2)^0,w,c
  2586   0012EE  16DF               	andwf	indf2,f,c
  2587   0012F0                     l4108:
  2588                           
  2589                           ;MCAL/GPIO/HAL_GPIO.c: 38:                 Retval = E_OK;
  2590   0012F0  0E01               	movlw	1
  2591   0012F2  6E3B               	movwf	GPIO_PIN_DIRECTION_INITIALIZE@Retval^0,c
  2592                           
  2593                           ;MCAL/GPIO/HAL_GPIO.c: 39:                 break;
  2594   0012F4  EFBA  F009         	goto	l4120
  2595   0012F8                     l4110:
  2596                           
  2597                           ;MCAL/GPIO/HAL_GPIO.c: 41:                 (*TRIS_REG[_PIN_CONFIG->PORT] |= (((uint8)0x0
      +                          1) << _PIN_CONFIG->PIN));
  2598   0012F8  5035               	movf	GPIO_PIN_DIRECTION_INITIALIZE@_PIN_CONFIG^0,w,c
  2599   0012FA  6ED9               	movwf	fsr2l,c
  2600   0012FC  6ADA               	clrf	fsr2h,c
  2601   0012FE  30DF               	rrcf	223,w,c
  2602   001300  32E8               	rrcf	wreg,f,c
  2603   001302  32E8               	rrcf	wreg,f,c
  2604   001304  0B07               	andlw	7
  2605   001306  6E36               	movwf	??_GPIO_PIN_DIRECTION_INITIALIZE^0,c
  2606   001308  0E01               	movlw	1
  2607   00130A  6E37               	movwf	(??_GPIO_PIN_DIRECTION_INITIALIZE+1)^0,c
  2608   00130C  2A36               	incf	??_GPIO_PIN_DIRECTION_INITIALIZE^0,f,c
  2609   00130E  EF8B  F009         	goto	u3764
  2610   001312                     u3765:
  2611   001312  90D8               	bcf	status,0,c
  2612   001314  3637               	rlcf	(??_GPIO_PIN_DIRECTION_INITIALIZE+1)^0,f,c
  2613   001316                     u3764:
  2614   001316  2E36               	decfsz	??_GPIO_PIN_DIRECTION_INITIALIZE^0,f,c
  2615   001318  EF89  F009         	goto	u3765
  2616   00131C  5035               	movf	GPIO_PIN_DIRECTION_INITIALIZE@_PIN_CONFIG^0,w,c
  2617   00131E  6ED9               	movwf	fsr2l,c
  2618   001320  6ADA               	clrf	fsr2h,c
  2619   001322  50DF               	movf	223,w,c
  2620   001324  0B07               	andlw	7
  2621   001326  0D02               	mullw	2
  2622   001328  50F3               	movf	243,w,c
  2623   00132A  0F6A               	addlw	low _TRIS_REG
  2624   00132C  6ED9               	movwf	fsr2l,c
  2625   00132E  6ADA               	clrf	fsr2h,c
  2626   001330  CFDE F038          	movff	postinc2,??_GPIO_PIN_DIRECTION_INITIALIZE+2
  2627   001334  CFDD F039          	movff	postdec2,??_GPIO_PIN_DIRECTION_INITIALIZE+3
  2628   001338  C038  FFD9         	movff	??_GPIO_PIN_DIRECTION_INITIALIZE+2,fsr2l
  2629   00133C  C039  FFDA         	movff	??_GPIO_PIN_DIRECTION_INITIALIZE+3,fsr2h
  2630   001340  5037               	movf	(??_GPIO_PIN_DIRECTION_INITIALIZE+1)^0,w,c
  2631   001342  12DF               	iorwf	indf2,f,c
  2632   001344  EF78  F009         	goto	l4108
  2633   001348                     l4118:
  2634   001348  5035               	movf	GPIO_PIN_DIRECTION_INITIALIZE@_PIN_CONFIG^0,w,c
  2635   00134A  6ED9               	movwf	fsr2l,c
  2636   00134C  6ADA               	clrf	fsr2h,c
  2637   00134E  BCDF               	btfsc	indf2,6,c
  2638   001350  EFAC  F009         	goto	u3771
  2639   001354  EFAF  F009         	goto	u3770
  2640   001358                     u3771:
  2641   001358  0E01               	movlw	1
  2642   00135A  EFB0  F009         	goto	u3776
  2643   00135E                     u3770:
  2644   00135E  0E00               	movlw	0
  2645   001360                     u3776:
  2646                           
  2647                           ; Switch size 1, requested type "simple"
  2648                           ; Number of cases is 2, Range of values is 0 to 1
  2649                           ; switch strategies available:
  2650                           ; Name         Instructions Cycles
  2651                           ; simple_byte            7     4 (average)
  2652                           ;	Chosen strategy is simple_byte
  2653   001360  0A00               	xorlw	0	; case 0
  2654   001362  B4D8               	btfsc	status,2,c
  2655   001364  EF4F  F009         	goto	l4106
  2656   001368  0A01               	xorlw	1	; case 1
  2657   00136A  B4D8               	btfsc	status,2,c
  2658   00136C  EF7C  F009         	goto	l4110
  2659   001370  EF4B  F009         	goto	l4104
  2660   001374                     l4120:
  2661                           
  2662                           ;MCAL/GPIO/HAL_GPIO.c: 49:     return Retval;
  2663   001374  503B               	movf	GPIO_PIN_DIRECTION_INITIALIZE@Retval^0,w,c
  2664   001376  0012               	return		;funcret
  2665   001378                     __end_of_GPIO_PIN_DIRECTION_INITIALIZE:
  2666                           	callstack 0
  2667                           
  2668 ;; *************** function _interrupt_manager *****************
  2669 ;; Defined at:
  2670 ;;		line 89 in file "MCAL/Interrupt/MCAL_interrupt_manager.c"
  2671 ;; Parameters:    Size  Location     Type
  2672 ;;		None
  2673 ;; Auto vars:     Size  Location     Type
  2674 ;;		None
  2675 ;; Return value:  Size  Location     Type
  2676 ;;                  1    wreg      void 
  2677 ;; Registers used:
  2678 ;;		wreg, fsr2l, fsr2h, status,2, status,0, pcl, pclath, pclatu, tosl, prodl, prodh, cstack
  2679 ;; Tracked objects:
  2680 ;;		On entry : 0/0
  2681 ;;		On exit  : 0/0
  2682 ;;		Unchanged: 0/0
  2683 ;; Data sizes:     COMRAM   BANK0   BANK1   BANK2   BANK3   BANK4   BANK5   BANK6   BANK7   BANK8   BANK9  BANK10  BANK1
      +1  BANK12  BANK13  BANK14  BANK15
  2684 ;;      Params:         0       0       0       0       0       0       0       0       0       0       0       0       
      +0       0       0       0       0
  2685 ;;      Locals:         0       0       0       0       0       0       0       0       0       0       0       0       
      +0       0       0       0       0
  2686 ;;      Temps:          6       0       0       0       0       0       0       0       0       0       0       0       
      +0       0       0       0       0
  2687 ;;      Totals:         6       0       0       0       0       0       0       0       0       0       0       0       
      +0       0       0       0       0
  2688 ;;Total ram usage:        6 bytes
  2689 ;; Hardware stack levels used: 1
  2690 ;; Hardware stack levels required when called: 4
  2691 ;; This function calls:
  2692 ;;		_INT0_ISR
  2693 ;;		_INT1_ISR
  2694 ;;		_INT2_ISR
  2695 ;;		_RB4_ISR
  2696 ;;		_RB5_ISR
  2697 ;;		_RB6_ISR
  2698 ;;		_RB7_ISR
  2699 ;; This function is called by:
  2700 ;;		Interrupt level 2
  2701 ;; This function uses a non-reentrant model
  2702 ;;
  2703                           
  2704                           	psect	intcode
  2705   000008                     __pintcode:
  2706                           	callstack 0
  2707   000008                     _interrupt_manager:
  2708                           	callstack 20
  2709                           
  2710                           ;incstack = 0
  2711   000008  824C               	bsf	int$flags,1,c	;set compiler interrupt flag (level 2)
  2712   00000A  CFFA F02F          	movff	pclath,??_interrupt_manager
  2713   00000E  CFFB F030          	movff	pclatu,??_interrupt_manager+1
  2714   000012  CFD9 F031          	movff	fsr2l,??_interrupt_manager+2
  2715   000016  CFDA F032          	movff	fsr2h,??_interrupt_manager+3
  2716   00001A  CFF3 F033          	movff	prodl,??_interrupt_manager+4
  2717   00001E  CFF4 F034          	movff	prodh,??_interrupt_manager+5
  2718   000022                     
  2719                           ;MCAL/Interrupt/MCAL_interrupt_manager.c: 93:     if((0x01 == INTCONbits.INT0IE ) && (0x
      +                          01 == INTCONbits.INT0IF)){
  2720   000022  A8F2               	btfss	242,4,c	;volatile
  2721   000024  EF16  F000         	goto	i2u481_41
  2722   000028  EF18  F000         	goto	i2u481_40
  2723   00002C                     i2u481_41:
  2724   00002C  EF21  F000         	goto	i2l730
  2725   000030                     i2u481_40:
  2726   000030  A2F2               	btfss	242,1,c	;volatile
  2727   000032  EF1D  F000         	goto	i2u482_41
  2728   000036  EF1F  F000         	goto	i2u482_40
  2729   00003A                     i2u482_41:
  2730   00003A  EF21  F000         	goto	i2l730
  2731   00003E                     i2u482_40:
  2732   00003E                     
  2733                           ;MCAL/Interrupt/MCAL_interrupt_manager.c: 94:         INT0_ISR();
  2734   00003E  ECF2  F00E         	call	_INT0_ISR	;wreg free
  2735   000042                     i2l730:
  2736                           
  2737                           ;MCAL/Interrupt/MCAL_interrupt_manager.c: 97:     if((0x01 == INTCON3bits.INT1IE ) && (0
      +                          x01 == INTCON3bits.INT1IF)){
  2738   000042  A6F0               	btfss	240,3,c	;volatile
  2739   000044  EF26  F000         	goto	i2u483_41
  2740   000048  EF28  F000         	goto	i2u483_40
  2741   00004C                     i2u483_41:
  2742   00004C  EF31  F000         	goto	i2l732
  2743   000050                     i2u483_40:
  2744   000050  A0F0               	btfss	240,0,c	;volatile
  2745   000052  EF2D  F000         	goto	i2u484_41
  2746   000056  EF2F  F000         	goto	i2u484_40
  2747   00005A                     i2u484_41:
  2748   00005A  EF31  F000         	goto	i2l732
  2749   00005E                     i2u484_40:
  2750   00005E                     
  2751                           ;MCAL/Interrupt/MCAL_interrupt_manager.c: 98:         INT1_ISR();
  2752   00005E  ECF0  F00E         	call	_INT1_ISR	;wreg free
  2753   000062                     i2l732:
  2754                           
  2755                           ;MCAL/Interrupt/MCAL_interrupt_manager.c: 101:     if((0x01 == INTCON3bits.INT2IE ) && (
      +                          0x01 == INTCON3bits.INT2IF)){
  2756   000062  A8F0               	btfss	240,4,c	;volatile
  2757   000064  EF36  F000         	goto	i2u485_41
  2758   000068  EF38  F000         	goto	i2u485_40
  2759   00006C                     i2u485_41:
  2760   00006C  EF41  F000         	goto	i2l734
  2761   000070                     i2u485_40:
  2762   000070  A2F0               	btfss	240,1,c	;volatile
  2763   000072  EF3D  F000         	goto	i2u486_41
  2764   000076  EF3F  F000         	goto	i2u486_40
  2765   00007A                     i2u486_41:
  2766   00007A  EF41  F000         	goto	i2l734
  2767   00007E                     i2u486_40:
  2768   00007E                     
  2769                           ;MCAL/Interrupt/MCAL_interrupt_manager.c: 102:         INT2_ISR();
  2770   00007E  ECEE  F00E         	call	_INT2_ISR	;wreg free
  2771   000082                     i2l734:
  2772                           
  2773                           ;MCAL/Interrupt/MCAL_interrupt_manager.c: 108:     if((0x01 == INTCONbits.RBIE ) && (0x0
      +                          1 == INTCONbits.RBIF)
  2774   000082  A6F2               	btfss	242,3,c	;volatile
  2775   000084  EF46  F000         	goto	i2u487_41
  2776   000088  EF48  F000         	goto	i2u487_40
  2777   00008C                     i2u487_41:
  2778   00008C  EF63  F000         	goto	i2l736
  2779   000090                     i2u487_40:
  2780   000090  A0F2               	btfss	242,0,c	;volatile
  2781   000092  EF4D  F000         	goto	i2u488_41
  2782   000096  EF4F  F000         	goto	i2u488_40
  2783   00009A                     i2u488_41:
  2784   00009A  EF63  F000         	goto	i2l736
  2785   00009E                     i2u488_40:
  2786   00009E  B881               	btfsc	129,4,c	;volatile
  2787   0000A0  EF54  F000         	goto	i2u489_41
  2788   0000A4  EF56  F000         	goto	i2u489_40
  2789   0000A8                     i2u489_41:
  2790   0000A8  EF63  F000         	goto	i2l736
  2791   0000AC                     i2u489_40:
  2792   0000AC  041A               	decf	_rb4_flag^0,w,c	;volatile
  2793   0000AE  A4D8               	btfss	status,2,c
  2794   0000B0  EF5C  F000         	goto	i2u490_41
  2795   0000B4  EF5E  F000         	goto	i2u490_40
  2796   0000B8                     i2u490_41:
  2797   0000B8  EF63  F000         	goto	i2l736
  2798   0000BC                     i2u490_40:
  2799   0000BC                     
  2800                           ;MCAL/Interrupt/MCAL_interrupt_manager.c: 109:             &&(GPIO_LOW == PORTBbits.RB4)
      +                           && (1 == rb4_flag)){;MCAL/Interrupt/MCAL_interrupt_manager.c: 110:         rb4_flag = 0
      +                          ;
  2801   0000BC  0E00               	movlw	0
  2802   0000BE  6E1A               	movwf	_rb4_flag^0,c	;volatile
  2803   0000C0                     
  2804                           ;MCAL/Interrupt/MCAL_interrupt_manager.c: 111:         RB4_ISR(0);
  2805   0000C0  0E00               	movlw	0
  2806   0000C2  EC58  F00C         	call	_RB4_ISR
  2807   0000C6                     i2l736:
  2808                           
  2809                           ;MCAL/Interrupt/MCAL_interrupt_manager.c: 114:     if((0x01 == INTCONbits.RBIE ) && (0x0
      +                          1 == INTCONbits.RBIF)
  2810   0000C6  A6F2               	btfss	242,3,c	;volatile
  2811   0000C8  EF68  F000         	goto	i2u491_41
  2812   0000CC  EF6A  F000         	goto	i2u491_40
  2813   0000D0                     i2u491_41:
  2814   0000D0  EF85  F000         	goto	i2l738
  2815   0000D4                     i2u491_40:
  2816   0000D4  A0F2               	btfss	242,0,c	;volatile
  2817   0000D6  EF6F  F000         	goto	i2u492_41
  2818   0000DA  EF71  F000         	goto	i2u492_40
  2819   0000DE                     i2u492_41:
  2820   0000DE  EF85  F000         	goto	i2l738
  2821   0000E2                     i2u492_40:
  2822   0000E2  A881               	btfss	129,4,c	;volatile
  2823   0000E4  EF76  F000         	goto	i2u493_41
  2824   0000E8  EF78  F000         	goto	i2u493_40
  2825   0000EC                     i2u493_41:
  2826   0000EC  EF85  F000         	goto	i2l738
  2827   0000F0                     i2u493_40:
  2828   0000F0  501A               	movf	_rb4_flag^0,w,c	;volatile
  2829   0000F2  A4D8               	btfss	status,2,c
  2830   0000F4  EF7E  F000         	goto	i2u494_41
  2831   0000F8  EF80  F000         	goto	i2u494_40
  2832   0000FC                     i2u494_41:
  2833   0000FC  EF85  F000         	goto	i2l738
  2834   000100                     i2u494_40:
  2835   000100                     
  2836                           ;MCAL/Interrupt/MCAL_interrupt_manager.c: 115:             && (GPIO_HIGH == PORTBbits.RB
      +                          4) && (0 == rb4_flag)){;MCAL/Interrupt/MCAL_interrupt_manager.c: 116:         rb4_flag =
      +                           1;
  2837   000100  0E01               	movlw	1
  2838   000102  6E1A               	movwf	_rb4_flag^0,c	;volatile
  2839   000104                     
  2840                           ;MCAL/Interrupt/MCAL_interrupt_manager.c: 117:         RB4_ISR(1);
  2841   000104  0E01               	movlw	1
  2842   000106  EC58  F00C         	call	_RB4_ISR
  2843   00010A                     i2l738:
  2844                           
  2845                           ;MCAL/Interrupt/MCAL_interrupt_manager.c: 120:     if((0x01 == INTCONbits.RBIE ) && (0x0
      +                          1 == INTCONbits.RBIF)
  2846   00010A  A6F2               	btfss	242,3,c	;volatile
  2847   00010C  EF8A  F000         	goto	i2u495_41
  2848   000110  EF8C  F000         	goto	i2u495_40
  2849   000114                     i2u495_41:
  2850   000114  EFA7  F000         	goto	i2l740
  2851   000118                     i2u495_40:
  2852   000118  A0F2               	btfss	242,0,c	;volatile
  2853   00011A  EF91  F000         	goto	i2u496_41
  2854   00011E  EF93  F000         	goto	i2u496_40
  2855   000122                     i2u496_41:
  2856   000122  EFA7  F000         	goto	i2l740
  2857   000126                     i2u496_40:
  2858   000126  BA81               	btfsc	129,5,c	;volatile
  2859   000128  EF98  F000         	goto	i2u497_41
  2860   00012C  EF9A  F000         	goto	i2u497_40
  2861   000130                     i2u497_41:
  2862   000130  EFA7  F000         	goto	i2l740
  2863   000134                     i2u497_40:
  2864   000134  0419               	decf	_rb5_flag^0,w,c	;volatile
  2865   000136  A4D8               	btfss	status,2,c
  2866   000138  EFA0  F000         	goto	i2u498_41
  2867   00013C  EFA2  F000         	goto	i2u498_40
  2868   000140                     i2u498_41:
  2869   000140  EFA7  F000         	goto	i2l740
  2870   000144                     i2u498_40:
  2871   000144                     
  2872                           ;MCAL/Interrupt/MCAL_interrupt_manager.c: 121:             && (GPIO_LOW == PORTBbits.RB5
      +                          ) && (1 == rb5_flag)){;MCAL/Interrupt/MCAL_interrupt_manager.c: 122:         rb5_flag = 
      +                          0;
  2873   000144  0E00               	movlw	0
  2874   000146  6E19               	movwf	_rb5_flag^0,c	;volatile
  2875   000148                     
  2876                           ;MCAL/Interrupt/MCAL_interrupt_manager.c: 123:         RB5_ISR(0);
  2877   000148  0E00               	movlw	0
  2878   00014A  EC19  F00C         	call	_RB5_ISR
  2879   00014E                     i2l740:
  2880                           
  2881                           ;MCAL/Interrupt/MCAL_interrupt_manager.c: 126:     if((0x01 == INTCONbits.RBIE ) && (0x0
      +                          1 == INTCONbits.RBIF)
  2882   00014E  A6F2               	btfss	242,3,c	;volatile
  2883   000150  EFAC  F000         	goto	i2u499_41
  2884   000154  EFAE  F000         	goto	i2u499_40
  2885   000158                     i2u499_41:
  2886   000158  EFC9  F000         	goto	i2l742
  2887   00015C                     i2u499_40:
  2888   00015C  A0F2               	btfss	242,0,c	;volatile
  2889   00015E  EFB3  F000         	goto	i2u500_41
  2890   000162  EFB5  F000         	goto	i2u500_40
  2891   000166                     i2u500_41:
  2892   000166  EFC9  F000         	goto	i2l742
  2893   00016A                     i2u500_40:
  2894   00016A  AA81               	btfss	129,5,c	;volatile
  2895   00016C  EFBA  F000         	goto	i2u501_41
  2896   000170  EFBC  F000         	goto	i2u501_40
  2897   000174                     i2u501_41:
  2898   000174  EFC9  F000         	goto	i2l742
  2899   000178                     i2u501_40:
  2900   000178  5019               	movf	_rb5_flag^0,w,c	;volatile
  2901   00017A  A4D8               	btfss	status,2,c
  2902   00017C  EFC2  F000         	goto	i2u502_41
  2903   000180  EFC4  F000         	goto	i2u502_40
  2904   000184                     i2u502_41:
  2905   000184  EFC9  F000         	goto	i2l742
  2906   000188                     i2u502_40:
  2907   000188                     
  2908                           ;MCAL/Interrupt/MCAL_interrupt_manager.c: 127:             && (GPIO_HIGH == PORTBbits.RB
      +                          5) && (0 == rb5_flag)){;MCAL/Interrupt/MCAL_interrupt_manager.c: 128:         rb5_flag =
      +                           1;
  2909   000188  0E01               	movlw	1
  2910   00018A  6E19               	movwf	_rb5_flag^0,c	;volatile
  2911   00018C                     
  2912                           ;MCAL/Interrupt/MCAL_interrupt_manager.c: 129:         RB5_ISR(1);
  2913   00018C  0E01               	movlw	1
  2914   00018E  EC19  F00C         	call	_RB5_ISR
  2915   000192                     i2l742:
  2916                           
  2917                           ;MCAL/Interrupt/MCAL_interrupt_manager.c: 132:     if((0x01 == INTCONbits.RBIE ) && (0x0
      +                          1 == INTCONbits.RBIF)
  2918   000192  A6F2               	btfss	242,3,c	;volatile
  2919   000194  EFCE  F000         	goto	i2u503_41
  2920   000198  EFD0  F000         	goto	i2u503_40
  2921   00019C                     i2u503_41:
  2922   00019C  EFEB  F000         	goto	i2l744
  2923   0001A0                     i2u503_40:
  2924   0001A0  A0F2               	btfss	242,0,c	;volatile
  2925   0001A2  EFD5  F000         	goto	i2u504_41
  2926   0001A6  EFD7  F000         	goto	i2u504_40
  2927   0001AA                     i2u504_41:
  2928   0001AA  EFEB  F000         	goto	i2l744
  2929   0001AE                     i2u504_40:
  2930   0001AE  BC81               	btfsc	129,6,c	;volatile
  2931   0001B0  EFDC  F000         	goto	i2u505_41
  2932   0001B4  EFDE  F000         	goto	i2u505_40
  2933   0001B8                     i2u505_41:
  2934   0001B8  EFEB  F000         	goto	i2l744
  2935   0001BC                     i2u505_40:
  2936   0001BC  0418               	decf	_rb6_flag^0,w,c	;volatile
  2937   0001BE  A4D8               	btfss	status,2,c
  2938   0001C0  EFE4  F000         	goto	i2u506_41
  2939   0001C4  EFE6  F000         	goto	i2u506_40
  2940   0001C8                     i2u506_41:
  2941   0001C8  EFEB  F000         	goto	i2l744
  2942   0001CC                     i2u506_40:
  2943   0001CC                     
  2944                           ;MCAL/Interrupt/MCAL_interrupt_manager.c: 133:             && (GPIO_LOW == PORTBbits.RB6
      +                          ) && ( 1 == rb6_flag)){;MCAL/Interrupt/MCAL_interrupt_manager.c: 134:         rb6_flag =
      +                           0;
  2945   0001CC  0E00               	movlw	0
  2946   0001CE  6E18               	movwf	_rb6_flag^0,c	;volatile
  2947   0001D0                     
  2948                           ;MCAL/Interrupt/MCAL_interrupt_manager.c: 135:         RB6_ISR(0);
  2949   0001D0  0E00               	movlw	0
  2950   0001D2  ECDA  F00B         	call	_RB6_ISR
  2951   0001D6                     i2l744:
  2952                           
  2953                           ;MCAL/Interrupt/MCAL_interrupt_manager.c: 138:     if((0x01 == INTCONbits.RBIE ) && (0x0
      +                          1 == INTCONbits.RBIF)
  2954   0001D6  A6F2               	btfss	242,3,c	;volatile
  2955   0001D8  EFF0  F000         	goto	i2u507_41
  2956   0001DC  EFF2  F000         	goto	i2u507_40
  2957   0001E0                     i2u507_41:
  2958   0001E0  EF0D  F001         	goto	i2l746
  2959   0001E4                     i2u507_40:
  2960   0001E4  A0F2               	btfss	242,0,c	;volatile
  2961   0001E6  EFF7  F000         	goto	i2u508_41
  2962   0001EA  EFF9  F000         	goto	i2u508_40
  2963   0001EE                     i2u508_41:
  2964   0001EE  EF0D  F001         	goto	i2l746
  2965   0001F2                     i2u508_40:
  2966   0001F2  AC81               	btfss	129,6,c	;volatile
  2967   0001F4  EFFE  F000         	goto	i2u509_41
  2968   0001F8  EF00  F001         	goto	i2u509_40
  2969   0001FC                     i2u509_41:
  2970   0001FC  EF0D  F001         	goto	i2l746
  2971   000200                     i2u509_40:
  2972   000200  5018               	movf	_rb6_flag^0,w,c	;volatile
  2973   000202  A4D8               	btfss	status,2,c
  2974   000204  EF06  F001         	goto	i2u510_41
  2975   000208  EF08  F001         	goto	i2u510_40
  2976   00020C                     i2u510_41:
  2977   00020C  EF0D  F001         	goto	i2l746
  2978   000210                     i2u510_40:
  2979   000210                     
  2980                           ;MCAL/Interrupt/MCAL_interrupt_manager.c: 139:             && (GPIO_HIGH == PORTBbits.RB
      +                          6) && ( 0 == rb6_flag)){;MCAL/Interrupt/MCAL_interrupt_manager.c: 140:         rb6_flag 
      +                          = 1;
  2981   000210  0E01               	movlw	1
  2982   000212  6E18               	movwf	_rb6_flag^0,c	;volatile
  2983   000214                     
  2984                           ;MCAL/Interrupt/MCAL_interrupt_manager.c: 141:         RB6_ISR(1);
  2985   000214  0E01               	movlw	1
  2986   000216  ECDA  F00B         	call	_RB6_ISR
  2987   00021A                     i2l746:
  2988                           
  2989                           ;MCAL/Interrupt/MCAL_interrupt_manager.c: 144:     if((0x01 == INTCONbits.RBIE ) && (0x0
      +                          1 == INTCONbits.RBIF)
  2990   00021A  A6F2               	btfss	242,3,c	;volatile
  2991   00021C  EF12  F001         	goto	i2u511_41
  2992   000220  EF14  F001         	goto	i2u511_40
  2993   000224                     i2u511_41:
  2994   000224  EF2F  F001         	goto	i2l748
  2995   000228                     i2u511_40:
  2996   000228  A0F2               	btfss	242,0,c	;volatile
  2997   00022A  EF19  F001         	goto	i2u512_41
  2998   00022E  EF1B  F001         	goto	i2u512_40
  2999   000232                     i2u512_41:
  3000   000232  EF2F  F001         	goto	i2l748
  3001   000236                     i2u512_40:
  3002   000236  BE81               	btfsc	129,7,c	;volatile
  3003   000238  EF20  F001         	goto	i2u513_41
  3004   00023C  EF22  F001         	goto	i2u513_40
  3005   000240                     i2u513_41:
  3006   000240  EF2F  F001         	goto	i2l748
  3007   000244                     i2u513_40:
  3008   000244  0417               	decf	_rb7_flag^0,w,c	;volatile
  3009   000246  A4D8               	btfss	status,2,c
  3010   000248  EF28  F001         	goto	i2u514_41
  3011   00024C  EF2A  F001         	goto	i2u514_40
  3012   000250                     i2u514_41:
  3013   000250  EF2F  F001         	goto	i2l748
  3014   000254                     i2u514_40:
  3015   000254                     
  3016                           ;MCAL/Interrupt/MCAL_interrupt_manager.c: 145:             && (GPIO_LOW == PORTBbits.RB7
      +                          ) && ( 1 == rb7_flag)){;MCAL/Interrupt/MCAL_interrupt_manager.c: 146:         rb7_flag =
      +                           0;
  3017   000254  0E00               	movlw	0
  3018   000256  6E17               	movwf	_rb7_flag^0,c	;volatile
  3019   000258                     
  3020                           ;MCAL/Interrupt/MCAL_interrupt_manager.c: 147:         RB7_ISR(0);
  3021   000258  0E00               	movlw	0
  3022   00025A  EC9B  F00B         	call	_RB7_ISR
  3023   00025E                     i2l748:
  3024                           
  3025                           ;MCAL/Interrupt/MCAL_interrupt_manager.c: 150:     if((0x01 == INTCONbits.RBIE ) && (0x0
      +                          1 == INTCONbits.RBIF)
  3026   00025E  A6F2               	btfss	242,3,c	;volatile
  3027   000260  EF34  F001         	goto	i2u515_41
  3028   000264  EF36  F001         	goto	i2u515_40
  3029   000268                     i2u515_41:
  3030   000268  EF51  F001         	goto	i2l751
  3031   00026C                     i2u515_40:
  3032   00026C  A0F2               	btfss	242,0,c	;volatile
  3033   00026E  EF3B  F001         	goto	i2u516_41
  3034   000272  EF3D  F001         	goto	i2u516_40
  3035   000276                     i2u516_41:
  3036   000276  EF51  F001         	goto	i2l751
  3037   00027A                     i2u516_40:
  3038   00027A  AE81               	btfss	129,7,c	;volatile
  3039   00027C  EF42  F001         	goto	i2u517_41
  3040   000280  EF44  F001         	goto	i2u517_40
  3041   000284                     i2u517_41:
  3042   000284  EF51  F001         	goto	i2l751
  3043   000288                     i2u517_40:
  3044   000288  5017               	movf	_rb7_flag^0,w,c	;volatile
  3045   00028A  A4D8               	btfss	status,2,c
  3046   00028C  EF4A  F001         	goto	i2u518_41
  3047   000290  EF4C  F001         	goto	i2u518_40
  3048   000294                     i2u518_41:
  3049   000294  EF51  F001         	goto	i2l751
  3050   000298                     i2u518_40:
  3051   000298                     
  3052                           ;MCAL/Interrupt/MCAL_interrupt_manager.c: 151:             && (GPIO_HIGH == PORTBbits.RB
      +                          7) && ( 0 == rb7_flag)){;MCAL/Interrupt/MCAL_interrupt_manager.c: 152:         rb7_flag 
      +                          = 1;
  3053   000298  0E01               	movlw	1
  3054   00029A  6E17               	movwf	_rb7_flag^0,c	;volatile
  3055   00029C                     
  3056                           ;MCAL/Interrupt/MCAL_interrupt_manager.c: 153:         RB7_ISR(1);
  3057   00029C  0E01               	movlw	1
  3058   00029E  EC9B  F00B         	call	_RB7_ISR
  3059   0002A2                     i2l751:
  3060   0002A2  C034  FFF4         	movff	??_interrupt_manager+5,prodh
  3061   0002A6  C033  FFF3         	movff	??_interrupt_manager+4,prodl
  3062   0002AA  C032  FFDA         	movff	??_interrupt_manager+3,fsr2h
  3063   0002AE  C031  FFD9         	movff	??_interrupt_manager+2,fsr2l
  3064   0002B2  C030  FFFB         	movff	??_interrupt_manager+1,pclatu
  3065   0002B6  C02F  FFFA         	movff	??_interrupt_manager,pclath
  3066   0002BA  924C               	bcf	int$flags,1,c	;clear compiler interrupt flag (level 2)
  3067   0002BC  0011               	retfie		f
  3068   0002BE                     __end_of_interrupt_manager:
  3069                           	callstack 0
  3070                           
  3071 ;; *************** function _RB7_ISR *****************
  3072 ;; Defined at:
  3073 ;;		line 247 in file "MCAL/Interrupt/MCAL_external_interrupt.c"
  3074 ;; Parameters:    Size  Location     Type
  3075 ;;  rb7             1    wreg     unsigned char 
  3076 ;; Auto vars:     Size  Location     Type
  3077 ;;  rb7             1   12[COMRAM] unsigned char 
  3078 ;; Return value:  Size  Location     Type
  3079 ;;                  1    wreg      void 
  3080 ;; Registers used:
  3081 ;;		wreg, fsr2l, fsr2h, status,2, status,0, pcl, pclath, pclatu, tosl, prodl, prodh, cstack
  3082 ;; Tracked objects:
  3083 ;;		On entry : 0/0
  3084 ;;		On exit  : 0/0
  3085 ;;		Unchanged: 0/0
  3086 ;; Data sizes:     COMRAM   BANK0   BANK1   BANK2   BANK3   BANK4   BANK5   BANK6   BANK7   BANK8   BANK9  BANK10  BANK1
      +1  BANK12  BANK13  BANK14  BANK15
  3087 ;;      Params:         0       0       0       0       0       0       0       0       0       0       0       0       
      +0       0       0       0       0
  3088 ;;      Locals:         1       0       0       0       0       0       0       0       0       0       0       0       
      +0       0       0       0       0
  3089 ;;      Temps:          0       0       0       0       0       0       0       0       0       0       0       0       
      +0       0       0       0       0
  3090 ;;      Totals:         1       0       0       0       0       0       0       0       0       0       0       0       
      +0       0       0       0       0
  3091 ;;Total ram usage:        1 bytes
  3092 ;; Hardware stack levels used: 1
  3093 ;; Hardware stack levels required when called: 3
  3094 ;; This function calls:
  3095 ;;		NULL
  3096 ;;		_RB4_ISR_HIGH_TT
  3097 ;;		_RB4_ISR_LOW_TT
  3098 ;;		_RB5_ISR_HIGH_TT
  3099 ;;		_RB5_ISR_LOW_TT
  3100 ;;		_RB6_ISR_HIGH_TT
  3101 ;;		_RB6_ISR_LOW_TT
  3102 ;;		_RB7_ISR_HIGH_TT
  3103 ;;		_RB7_ISR_LOW_TT
  3104 ;; This function is called by:
  3105 ;;		_interrupt_manager
  3106 ;; This function uses a non-reentrant model
  3107 ;;
  3108                           
  3109                           	psect	text16
  3110   001736                     __ptext16:
  3111                           	callstack 0
  3112   001736                     _RB7_ISR:
  3113                           	callstack 20
  3114                           
  3115                           ;incstack = 0
  3116                           ;RB7_ISR@rb7 stored from wreg
  3117   001736  6E2E               	movwf	RB7_ISR@rb7^0,c
  3118   001738                     
  3119                           ;MCAL/Interrupt/MCAL_external_interrupt.c: 248:     (INTCONbits.RBIF = 0);
  3120   001738  90F2               	bcf	242,0,c	;volatile
  3121   00173A                     
  3122                           ;MCAL/Interrupt/MCAL_external_interrupt.c: 249:     if(1 == rb7){
  3123   00173A  042E               	decf	RB7_ISR@rb7^0,w,c
  3124   00173C  A4D8               	btfss	status,2,c
  3125   00173E  EFA3  F00B         	goto	i2u430_41
  3126   001742  EFA5  F00B         	goto	i2u430_40
  3127   001746                     i2u430_41:
  3128   001746  EFBC  F00B         	goto	i2l4594
  3129   00174A                     i2u430_40:
  3130   00174A                     
  3131                           ;MCAL/Interrupt/MCAL_external_interrupt.c: 250:         if(RB7_interrupt_handler_HIGH){
  3132   00174A  5001               	movf	_RB7_interrupt_handler_HIGH^0,w,c
  3133   00174C  1002               	iorwf	(_RB7_interrupt_handler_HIGH+1)^0,w,c
  3134   00174E  B4D8               	btfsc	status,2,c
  3135   001750  EFAC  F00B         	goto	i2u431_41
  3136   001754  EFAE  F00B         	goto	i2u431_40
  3137   001758                     i2u431_41:
  3138   001758  EFD9  F00B         	goto	i2l584
  3139   00175C                     i2u431_40:
  3140   00175C                     
  3141                           ;MCAL/Interrupt/MCAL_external_interrupt.c: 251:             RB7_interrupt_handler_HIGH()
      +                          ;
  3142   00175C  D802               	call	i2u432_48
  3143   00175E  EFBA  F00B         	goto	i2u432_49
  3144   001762                     i2u432_48:
  3145   001762  0005               	push	
  3146   001764  6EFA               	movwf	pclath,c
  3147   001766  5001               	movf	_RB7_interrupt_handler_HIGH^0,w,c
  3148   001768  6EFD               	movwf	tosl,c
  3149   00176A  5002               	movf	(_RB7_interrupt_handler_HIGH+1)^0,w,c
  3150   00176C  6EFE               	movwf	tosh,c
  3151   00176E  6AFF               	clrf	tosu,c
  3152   001770  50FA               	movf	pclath,w,c
  3153   001772  0012               	return		;indir
  3154   001774                     i2u432_49:
  3155   001774  EFD9  F00B         	goto	i2l584
  3156   001778                     i2l4594:
  3157   001778  502E               	movf	RB7_ISR@rb7^0,w,c
  3158   00177A  A4D8               	btfss	status,2,c
  3159   00177C  EFC2  F00B         	goto	i2u433_41
  3160   001780  EFC4  F00B         	goto	i2u433_40
  3161   001784                     i2u433_41:
  3162   001784  EFD9  F00B         	goto	i2l584
  3163   001788                     i2u433_40:
  3164   001788                     
  3165                           ;MCAL/Interrupt/MCAL_external_interrupt.c: 255:         if(RB7_interrupt_handler_LOW){
  3166   001788  5003               	movf	_RB7_interrupt_handler_LOW^0,w,c
  3167   00178A  1004               	iorwf	(_RB7_interrupt_handler_LOW+1)^0,w,c
  3168   00178C  B4D8               	btfsc	status,2,c
  3169   00178E  EFCB  F00B         	goto	i2u434_41
  3170   001792  EFCD  F00B         	goto	i2u434_40
  3171   001796                     i2u434_41:
  3172   001796  EFD9  F00B         	goto	i2l584
  3173   00179A                     i2u434_40:
  3174   00179A                     
  3175                           ;MCAL/Interrupt/MCAL_external_interrupt.c: 256:             RB7_interrupt_handler_LOW();
  3176   00179A  D802               	call	i2u435_48
  3177   00179C  EFD9  F00B         	goto	i2u435_49
  3178   0017A0                     i2u435_48:
  3179   0017A0  0005               	push	
  3180   0017A2  6EFA               	movwf	pclath,c
  3181   0017A4  5003               	movf	_RB7_interrupt_handler_LOW^0,w,c
  3182   0017A6  6EFD               	movwf	tosl,c
  3183   0017A8  5004               	movf	(_RB7_interrupt_handler_LOW+1)^0,w,c
  3184   0017AA  6EFE               	movwf	tosh,c
  3185   0017AC  6AFF               	clrf	tosu,c
  3186   0017AE  50FA               	movf	pclath,w,c
  3187   0017B0  0012               	return		;indir
  3188   0017B2                     i2u435_49:
  3189   0017B2                     i2l584:
  3190   0017B2  0012               	return		;funcret
  3191   0017B4                     __end_of_RB7_ISR:
  3192                           	callstack 0
  3193                           
  3194 ;; *************** function _RB6_ISR *****************
  3195 ;; Defined at:
  3196 ;;		line 232 in file "MCAL/Interrupt/MCAL_external_interrupt.c"
  3197 ;; Parameters:    Size  Location     Type
  3198 ;;  rb6             1    wreg     unsigned char 
  3199 ;; Auto vars:     Size  Location     Type
  3200 ;;  rb6             1   12[COMRAM] unsigned char 
  3201 ;; Return value:  Size  Location     Type
  3202 ;;                  1    wreg      void 
  3203 ;; Registers used:
  3204 ;;		wreg, fsr2l, fsr2h, status,2, status,0, pcl, pclath, pclatu, tosl, prodl, prodh, cstack
  3205 ;; Tracked objects:
  3206 ;;		On entry : 0/0
  3207 ;;		On exit  : 0/0
  3208 ;;		Unchanged: 0/0
  3209 ;; Data sizes:     COMRAM   BANK0   BANK1   BANK2   BANK3   BANK4   BANK5   BANK6   BANK7   BANK8   BANK9  BANK10  BANK1
      +1  BANK12  BANK13  BANK14  BANK15
  3210 ;;      Params:         0       0       0       0       0       0       0       0       0       0       0       0       
      +0       0       0       0       0
  3211 ;;      Locals:         1       0       0       0       0       0       0       0       0       0       0       0       
      +0       0       0       0       0
  3212 ;;      Temps:          0       0       0       0       0       0       0       0       0       0       0       0       
      +0       0       0       0       0
  3213 ;;      Totals:         1       0       0       0       0       0       0       0       0       0       0       0       
      +0       0       0       0       0
  3214 ;;Total ram usage:        1 bytes
  3215 ;; Hardware stack levels used: 1
  3216 ;; Hardware stack levels required when called: 3
  3217 ;; This function calls:
  3218 ;;		NULL
  3219 ;;		_RB4_ISR_HIGH_TT
  3220 ;;		_RB4_ISR_LOW_TT
  3221 ;;		_RB5_ISR_HIGH_TT
  3222 ;;		_RB5_ISR_LOW_TT
  3223 ;;		_RB6_ISR_HIGH_TT
  3224 ;;		_RB6_ISR_LOW_TT
  3225 ;;		_RB7_ISR_HIGH_TT
  3226 ;;		_RB7_ISR_LOW_TT
  3227 ;; This function is called by:
  3228 ;;		_interrupt_manager
  3229 ;; This function uses a non-reentrant model
  3230 ;;
  3231                           
  3232                           	psect	text17
  3233   0017B4                     __ptext17:
  3234                           	callstack 0
  3235   0017B4                     _RB6_ISR:
  3236                           	callstack 20
  3237                           
  3238                           ;incstack = 0
  3239                           ;RB6_ISR@rb6 stored from wreg
  3240   0017B4  6E2E               	movwf	RB6_ISR@rb6^0,c
  3241   0017B6                     
  3242                           ;MCAL/Interrupt/MCAL_external_interrupt.c: 233:     (INTCONbits.RBIF = 0);
  3243   0017B6  90F2               	bcf	242,0,c	;volatile
  3244   0017B8                     
  3245                           ;MCAL/Interrupt/MCAL_external_interrupt.c: 234:     if(1 == rb6){
  3246   0017B8  042E               	decf	RB6_ISR@rb6^0,w,c
  3247   0017BA  A4D8               	btfss	status,2,c
  3248   0017BC  EFE2  F00B         	goto	i2u424_41
  3249   0017C0  EFE4  F00B         	goto	i2u424_40
  3250   0017C4                     i2u424_41:
  3251   0017C4  EFFB  F00B         	goto	i2l4580
  3252   0017C8                     i2u424_40:
  3253   0017C8                     
  3254                           ;MCAL/Interrupt/MCAL_external_interrupt.c: 235:         if(RB6_interrupt_handler_HIGH){
  3255   0017C8  5005               	movf	_RB6_interrupt_handler_HIGH^0,w,c
  3256   0017CA  1006               	iorwf	(_RB6_interrupt_handler_HIGH+1)^0,w,c
  3257   0017CC  B4D8               	btfsc	status,2,c
  3258   0017CE  EFEB  F00B         	goto	i2u425_41
  3259   0017D2  EFED  F00B         	goto	i2u425_40
  3260   0017D6                     i2u425_41:
  3261   0017D6  EF18  F00C         	goto	i2l574
  3262   0017DA                     i2u425_40:
  3263   0017DA                     
  3264                           ;MCAL/Interrupt/MCAL_external_interrupt.c: 236:             RB6_interrupt_handler_HIGH()
      +                          ;
  3265   0017DA  D802               	call	i2u426_48
  3266   0017DC  EFF9  F00B         	goto	i2u426_49
  3267   0017E0                     i2u426_48:
  3268   0017E0  0005               	push	
  3269   0017E2  6EFA               	movwf	pclath,c
  3270   0017E4  5005               	movf	_RB6_interrupt_handler_HIGH^0,w,c
  3271   0017E6  6EFD               	movwf	tosl,c
  3272   0017E8  5006               	movf	(_RB6_interrupt_handler_HIGH+1)^0,w,c
  3273   0017EA  6EFE               	movwf	tosh,c
  3274   0017EC  6AFF               	clrf	tosu,c
  3275   0017EE  50FA               	movf	pclath,w,c
  3276   0017F0  0012               	return		;indir
  3277   0017F2                     i2u426_49:
  3278   0017F2  EF18  F00C         	goto	i2l574
  3279   0017F6                     i2l4580:
  3280   0017F6  502E               	movf	RB6_ISR@rb6^0,w,c
  3281   0017F8  A4D8               	btfss	status,2,c
  3282   0017FA  EF01  F00C         	goto	i2u427_41
  3283   0017FE  EF03  F00C         	goto	i2u427_40
  3284   001802                     i2u427_41:
  3285   001802  EF18  F00C         	goto	i2l574
  3286   001806                     i2u427_40:
  3287   001806                     
  3288                           ;MCAL/Interrupt/MCAL_external_interrupt.c: 240:         if(RB6_interrupt_handler_LOW){
  3289   001806  5007               	movf	_RB6_interrupt_handler_LOW^0,w,c
  3290   001808  1008               	iorwf	(_RB6_interrupt_handler_LOW+1)^0,w,c
  3291   00180A  B4D8               	btfsc	status,2,c
  3292   00180C  EF0A  F00C         	goto	i2u428_41
  3293   001810  EF0C  F00C         	goto	i2u428_40
  3294   001814                     i2u428_41:
  3295   001814  EF18  F00C         	goto	i2l574
  3296   001818                     i2u428_40:
  3297   001818                     
  3298                           ;MCAL/Interrupt/MCAL_external_interrupt.c: 241:             RB6_interrupt_handler_LOW();
  3299   001818  D802               	call	i2u429_48
  3300   00181A  EF18  F00C         	goto	i2u429_49
  3301   00181E                     i2u429_48:
  3302   00181E  0005               	push	
  3303   001820  6EFA               	movwf	pclath,c
  3304   001822  5007               	movf	_RB6_interrupt_handler_LOW^0,w,c
  3305   001824  6EFD               	movwf	tosl,c
  3306   001826  5008               	movf	(_RB6_interrupt_handler_LOW+1)^0,w,c
  3307   001828  6EFE               	movwf	tosh,c
  3308   00182A  6AFF               	clrf	tosu,c
  3309   00182C  50FA               	movf	pclath,w,c
  3310   00182E  0012               	return		;indir
  3311   001830                     i2u429_49:
  3312   001830                     i2l574:
  3313   001830  0012               	return		;funcret
  3314   001832                     __end_of_RB6_ISR:
  3315                           	callstack 0
  3316                           
  3317 ;; *************** function _RB5_ISR *****************
  3318 ;; Defined at:
  3319 ;;		line 216 in file "MCAL/Interrupt/MCAL_external_interrupt.c"
  3320 ;; Parameters:    Size  Location     Type
  3321 ;;  rb5             1    wreg     unsigned char 
  3322 ;; Auto vars:     Size  Location     Type
  3323 ;;  rb5             1   12[COMRAM] unsigned char 
  3324 ;; Return value:  Size  Location     Type
  3325 ;;                  1    wreg      void 
  3326 ;; Registers used:
  3327 ;;		wreg, fsr2l, fsr2h, status,2, status,0, pcl, pclath, pclatu, tosl, prodl, prodh, cstack
  3328 ;; Tracked objects:
  3329 ;;		On entry : 0/0
  3330 ;;		On exit  : 0/0
  3331 ;;		Unchanged: 0/0
  3332 ;; Data sizes:     COMRAM   BANK0   BANK1   BANK2   BANK3   BANK4   BANK5   BANK6   BANK7   BANK8   BANK9  BANK10  BANK1
      +1  BANK12  BANK13  BANK14  BANK15
  3333 ;;      Params:         0       0       0       0       0       0       0       0       0       0       0       0       
      +0       0       0       0       0
  3334 ;;      Locals:         1       0       0       0       0       0       0       0       0       0       0       0       
      +0       0       0       0       0
  3335 ;;      Temps:          0       0       0       0       0       0       0       0       0       0       0       0       
      +0       0       0       0       0
  3336 ;;      Totals:         1       0       0       0       0       0       0       0       0       0       0       0       
      +0       0       0       0       0
  3337 ;;Total ram usage:        1 bytes
  3338 ;; Hardware stack levels used: 1
  3339 ;; Hardware stack levels required when called: 3
  3340 ;; This function calls:
  3341 ;;		NULL
  3342 ;;		_RB4_ISR_HIGH_TT
  3343 ;;		_RB4_ISR_LOW_TT
  3344 ;;		_RB5_ISR_HIGH_TT
  3345 ;;		_RB5_ISR_LOW_TT
  3346 ;;		_RB6_ISR_HIGH_TT
  3347 ;;		_RB6_ISR_LOW_TT
  3348 ;;		_RB7_ISR_HIGH_TT
  3349 ;;		_RB7_ISR_LOW_TT
  3350 ;; This function is called by:
  3351 ;;		_interrupt_manager
  3352 ;; This function uses a non-reentrant model
  3353 ;;
  3354                           
  3355                           	psect	text18
  3356   001832                     __ptext18:
  3357                           	callstack 0
  3358   001832                     _RB5_ISR:
  3359                           	callstack 20
  3360                           
  3361                           ;incstack = 0
  3362                           ;RB5_ISR@rb5 stored from wreg
  3363   001832  6E2E               	movwf	RB5_ISR@rb5^0,c
  3364   001834                     
  3365                           ;MCAL/Interrupt/MCAL_external_interrupt.c: 217:     (INTCONbits.RBIF = 0);
  3366   001834  90F2               	bcf	242,0,c	;volatile
  3367   001836                     
  3368                           ;MCAL/Interrupt/MCAL_external_interrupt.c: 219:     if(1 == rb5){
  3369   001836  042E               	decf	RB5_ISR@rb5^0,w,c
  3370   001838  A4D8               	btfss	status,2,c
  3371   00183A  EF21  F00C         	goto	i2u418_41
  3372   00183E  EF23  F00C         	goto	i2u418_40
  3373   001842                     i2u418_41:
  3374   001842  EF3A  F00C         	goto	i2l4566
  3375   001846                     i2u418_40:
  3376   001846                     
  3377                           ;MCAL/Interrupt/MCAL_external_interrupt.c: 220:         if(RB5_interrupt_handler_HIGH){
  3378   001846  5009               	movf	_RB5_interrupt_handler_HIGH^0,w,c
  3379   001848  100A               	iorwf	(_RB5_interrupt_handler_HIGH+1)^0,w,c
  3380   00184A  B4D8               	btfsc	status,2,c
  3381   00184C  EF2A  F00C         	goto	i2u419_41
  3382   001850  EF2C  F00C         	goto	i2u419_40
  3383   001854                     i2u419_41:
  3384   001854  EF57  F00C         	goto	i2l564
  3385   001858                     i2u419_40:
  3386   001858                     
  3387                           ;MCAL/Interrupt/MCAL_external_interrupt.c: 221:             RB5_interrupt_handler_HIGH()
      +                          ;
  3388   001858  D802               	call	i2u420_48
  3389   00185A  EF38  F00C         	goto	i2u420_49
  3390   00185E                     i2u420_48:
  3391   00185E  0005               	push	
  3392   001860  6EFA               	movwf	pclath,c
  3393   001862  5009               	movf	_RB5_interrupt_handler_HIGH^0,w,c
  3394   001864  6EFD               	movwf	tosl,c
  3395   001866  500A               	movf	(_RB5_interrupt_handler_HIGH+1)^0,w,c
  3396   001868  6EFE               	movwf	tosh,c
  3397   00186A  6AFF               	clrf	tosu,c
  3398   00186C  50FA               	movf	pclath,w,c
  3399   00186E  0012               	return		;indir
  3400   001870                     i2u420_49:
  3401   001870  EF57  F00C         	goto	i2l564
  3402   001874                     i2l4566:
  3403   001874  502E               	movf	RB5_ISR@rb5^0,w,c
  3404   001876  A4D8               	btfss	status,2,c
  3405   001878  EF40  F00C         	goto	i2u421_41
  3406   00187C  EF42  F00C         	goto	i2u421_40
  3407   001880                     i2u421_41:
  3408   001880  EF57  F00C         	goto	i2l564
  3409   001884                     i2u421_40:
  3410   001884                     
  3411                           ;MCAL/Interrupt/MCAL_external_interrupt.c: 225:         if(RB5_interrupt_handler_LOW){
  3412   001884  500B               	movf	_RB5_interrupt_handler_LOW^0,w,c
  3413   001886  100C               	iorwf	(_RB5_interrupt_handler_LOW+1)^0,w,c
  3414   001888  B4D8               	btfsc	status,2,c
  3415   00188A  EF49  F00C         	goto	i2u422_41
  3416   00188E  EF4B  F00C         	goto	i2u422_40
  3417   001892                     i2u422_41:
  3418   001892  EF57  F00C         	goto	i2l564
  3419   001896                     i2u422_40:
  3420   001896                     
  3421                           ;MCAL/Interrupt/MCAL_external_interrupt.c: 226:             RB5_interrupt_handler_LOW();
  3422   001896  D802               	call	i2u423_48
  3423   001898  EF57  F00C         	goto	i2u423_49
  3424   00189C                     i2u423_48:
  3425   00189C  0005               	push	
  3426   00189E  6EFA               	movwf	pclath,c
  3427   0018A0  500B               	movf	_RB5_interrupt_handler_LOW^0,w,c
  3428   0018A2  6EFD               	movwf	tosl,c
  3429   0018A4  500C               	movf	(_RB5_interrupt_handler_LOW+1)^0,w,c
  3430   0018A6  6EFE               	movwf	tosh,c
  3431   0018A8  6AFF               	clrf	tosu,c
  3432   0018AA  50FA               	movf	pclath,w,c
  3433   0018AC  0012               	return		;indir
  3434   0018AE                     i2u423_49:
  3435   0018AE                     i2l564:
  3436   0018AE  0012               	return		;funcret
  3437   0018B0                     __end_of_RB5_ISR:
  3438                           	callstack 0
  3439                           
  3440 ;; *************** function _RB4_ISR *****************
  3441 ;; Defined at:
  3442 ;;		line 200 in file "MCAL/Interrupt/MCAL_external_interrupt.c"
  3443 ;; Parameters:    Size  Location     Type
  3444 ;;  rb4             1    wreg     unsigned char 
  3445 ;; Auto vars:     Size  Location     Type
  3446 ;;  rb4             1   12[COMRAM] unsigned char 
  3447 ;; Return value:  Size  Location     Type
  3448 ;;                  1    wreg      void 
  3449 ;; Registers used:
  3450 ;;		wreg, fsr2l, fsr2h, status,2, status,0, pcl, pclath, pclatu, tosl, prodl, prodh, cstack
  3451 ;; Tracked objects:
  3452 ;;		On entry : 0/0
  3453 ;;		On exit  : 0/0
  3454 ;;		Unchanged: 0/0
  3455 ;; Data sizes:     COMRAM   BANK0   BANK1   BANK2   BANK3   BANK4   BANK5   BANK6   BANK7   BANK8   BANK9  BANK10  BANK1
      +1  BANK12  BANK13  BANK14  BANK15
  3456 ;;      Params:         0       0       0       0       0       0       0       0       0       0       0       0       
      +0       0       0       0       0
  3457 ;;      Locals:         1       0       0       0       0       0       0       0       0       0       0       0       
      +0       0       0       0       0
  3458 ;;      Temps:          0       0       0       0       0       0       0       0       0       0       0       0       
      +0       0       0       0       0
  3459 ;;      Totals:         1       0       0       0       0       0       0       0       0       0       0       0       
      +0       0       0       0       0
  3460 ;;Total ram usage:        1 bytes
  3461 ;; Hardware stack levels used: 1
  3462 ;; Hardware stack levels required when called: 3
  3463 ;; This function calls:
  3464 ;;		NULL
  3465 ;;		_RB4_ISR_HIGH_TT
  3466 ;;		_RB4_ISR_LOW_TT
  3467 ;;		_RB5_ISR_HIGH_TT
  3468 ;;		_RB5_ISR_LOW_TT
  3469 ;;		_RB6_ISR_HIGH_TT
  3470 ;;		_RB6_ISR_LOW_TT
  3471 ;;		_RB7_ISR_HIGH_TT
  3472 ;;		_RB7_ISR_LOW_TT
  3473 ;; This function is called by:
  3474 ;;		_interrupt_manager
  3475 ;; This function uses a non-reentrant model
  3476 ;;
  3477                           
  3478                           	psect	text19
  3479   0018B0                     __ptext19:
  3480                           	callstack 0
  3481   0018B0                     _RB4_ISR:
  3482                           	callstack 20
  3483                           
  3484                           ;incstack = 0
  3485                           ;RB4_ISR@rb4 stored from wreg
  3486   0018B0  6E2E               	movwf	RB4_ISR@rb4^0,c
  3487   0018B2                     
  3488                           ;MCAL/Interrupt/MCAL_external_interrupt.c: 201:     (INTCONbits.RBIF = 0);
  3489   0018B2  90F2               	bcf	242,0,c	;volatile
  3490   0018B4                     
  3491                           ;MCAL/Interrupt/MCAL_external_interrupt.c: 203:     if(1 == rb4){
  3492   0018B4  042E               	decf	RB4_ISR@rb4^0,w,c
  3493   0018B6  A4D8               	btfss	status,2,c
  3494   0018B8  EF60  F00C         	goto	i2u412_41
  3495   0018BC  EF62  F00C         	goto	i2u412_40
  3496   0018C0                     i2u412_41:
  3497   0018C0  EF79  F00C         	goto	i2l4552
  3498   0018C4                     i2u412_40:
  3499   0018C4                     
  3500                           ;MCAL/Interrupt/MCAL_external_interrupt.c: 204:         if(RB4_interrupt_handler_HIGH){
  3501   0018C4  500D               	movf	_RB4_interrupt_handler_HIGH^0,w,c
  3502   0018C6  100E               	iorwf	(_RB4_interrupt_handler_HIGH+1)^0,w,c
  3503   0018C8  B4D8               	btfsc	status,2,c
  3504   0018CA  EF69  F00C         	goto	i2u413_41
  3505   0018CE  EF6B  F00C         	goto	i2u413_40
  3506   0018D2                     i2u413_41:
  3507   0018D2  EF96  F00C         	goto	i2l554
  3508   0018D6                     i2u413_40:
  3509   0018D6                     
  3510                           ;MCAL/Interrupt/MCAL_external_interrupt.c: 205:             RB4_interrupt_handler_HIGH()
      +                          ;
  3511   0018D6  D802               	call	i2u414_48
  3512   0018D8  EF77  F00C         	goto	i2u414_49
  3513   0018DC                     i2u414_48:
  3514   0018DC  0005               	push	
  3515   0018DE  6EFA               	movwf	pclath,c
  3516   0018E0  500D               	movf	_RB4_interrupt_handler_HIGH^0,w,c
  3517   0018E2  6EFD               	movwf	tosl,c
  3518   0018E4  500E               	movf	(_RB4_interrupt_handler_HIGH+1)^0,w,c
  3519   0018E6  6EFE               	movwf	tosh,c
  3520   0018E8  6AFF               	clrf	tosu,c
  3521   0018EA  50FA               	movf	pclath,w,c
  3522   0018EC  0012               	return		;indir
  3523   0018EE                     i2u414_49:
  3524   0018EE  EF96  F00C         	goto	i2l554
  3525   0018F2                     i2l4552:
  3526   0018F2  502E               	movf	RB4_ISR@rb4^0,w,c
  3527   0018F4  A4D8               	btfss	status,2,c
  3528   0018F6  EF7F  F00C         	goto	i2u415_41
  3529   0018FA  EF81  F00C         	goto	i2u415_40
  3530   0018FE                     i2u415_41:
  3531   0018FE  EF96  F00C         	goto	i2l554
  3532   001902                     i2u415_40:
  3533   001902                     
  3534                           ;MCAL/Interrupt/MCAL_external_interrupt.c: 209:         if(RB4_interrupt_handler_LOW){
  3535   001902  500F               	movf	_RB4_interrupt_handler_LOW^0,w,c
  3536   001904  1010               	iorwf	(_RB4_interrupt_handler_LOW+1)^0,w,c
  3537   001906  B4D8               	btfsc	status,2,c
  3538   001908  EF88  F00C         	goto	i2u416_41
  3539   00190C  EF8A  F00C         	goto	i2u416_40
  3540   001910                     i2u416_41:
  3541   001910  EF96  F00C         	goto	i2l554
  3542   001914                     i2u416_40:
  3543   001914                     
  3544                           ;MCAL/Interrupt/MCAL_external_interrupt.c: 210:             RB4_interrupt_handler_LOW();
  3545   001914  D802               	call	i2u417_48
  3546   001916  EF96  F00C         	goto	i2u417_49
  3547   00191A                     i2u417_48:
  3548   00191A  0005               	push	
  3549   00191C  6EFA               	movwf	pclath,c
  3550   00191E  500F               	movf	_RB4_interrupt_handler_LOW^0,w,c
  3551   001920  6EFD               	movwf	tosl,c
  3552   001922  5010               	movf	(_RB4_interrupt_handler_LOW+1)^0,w,c
  3553   001924  6EFE               	movwf	tosh,c
  3554   001926  6AFF               	clrf	tosu,c
  3555   001928  50FA               	movf	pclath,w,c
  3556   00192A  0012               	return		;indir
  3557   00192C                     i2u417_49:
  3558   00192C                     i2l554:
  3559   00192C  0012               	return		;funcret
  3560   00192E                     __end_of_RB4_ISR:
  3561                           	callstack 0
  3562                           
  3563 ;; *************** function _RB6_ISR_LOW_TT *****************
  3564 ;; Defined at:
  3565 ;;		line 119 in file "Drivers_Main.c"
  3566 ;; Parameters:    Size  Location     Type
  3567 ;;		None
  3568 ;; Auto vars:     Size  Location     Type
  3569 ;;		None
  3570 ;; Return value:  Size  Location     Type
  3571 ;;                  1    wreg      void 
  3572 ;; Registers used:
  3573 ;;		wreg, fsr2l, fsr2h, status,2, status,0, prodl, prodh, cstack
  3574 ;; Tracked objects:
  3575 ;;		On entry : 0/0
  3576 ;;		On exit  : 0/0
  3577 ;;		Unchanged: 0/0
  3578 ;; Data sizes:     COMRAM   BANK0   BANK1   BANK2   BANK3   BANK4   BANK5   BANK6   BANK7   BANK8   BANK9  BANK10  BANK1
      +1  BANK12  BANK13  BANK14  BANK15
  3579 ;;      Params:         0       0       0       0       0       0       0       0       0       0       0       0       
      +0       0       0       0       0
  3580 ;;      Locals:         0       0       0       0       0       0       0       0       0       0       0       0       
      +0       0       0       0       0
  3581 ;;      Temps:          0       0       0       0       0       0       0       0       0       0       0       0       
      +0       0       0       0       0
  3582 ;;      Totals:         0       0       0       0       0       0       0       0       0       0       0       0       
      +0       0       0       0       0
  3583 ;;Total ram usage:        0 bytes
  3584 ;; Hardware stack levels used: 1
  3585 ;; Hardware stack levels required when called: 2
  3586 ;; This function calls:
  3587 ;;		_LED_Turn_ON
  3588 ;; This function is called by:
  3589 ;;		_RB4_ISR
  3590 ;;		_RB5_ISR
  3591 ;;		_RB6_ISR
  3592 ;;		_RB7_ISR
  3593 ;; This function uses a non-reentrant model
  3594 ;;
  3595                           
  3596                           	psect	text20
  3597   001D76                     __ptext20:
  3598                           	callstack 0
  3599   001D76                     _RB6_ISR_LOW_TT:
  3600                           	callstack 20
  3601   001D76                     
  3602                           ;Drivers_Main.c: 120:     Ret = LED_Turn_ON(&led4);
  3603   001D76  0E47               	movlw	low _led4
  3604   001D78  6E2A               	movwf	LED_Turn_ON@led^0,c
  3605   001D7A  EC49  F00D         	call	_LED_Turn_ON	;wreg free
  3606   001D7E  6E4B               	movwf	_Ret^0,c
  3607   001D80  0012               	return		;funcret
  3608   001D82                     __end_of_RB6_ISR_LOW_TT:
  3609                           	callstack 0
  3610                           
  3611 ;; *************** function _RB5_ISR_LOW_TT *****************
  3612 ;; Defined at:
  3613 ;;		line 113 in file "Drivers_Main.c"
  3614 ;; Parameters:    Size  Location     Type
  3615 ;;		None
  3616 ;; Auto vars:     Size  Location     Type
  3617 ;;		None
  3618 ;; Return value:  Size  Location     Type
  3619 ;;                  1    wreg      void 
  3620 ;; Registers used:
  3621 ;;		wreg, fsr2l, fsr2h, status,2, status,0, prodl, prodh, cstack
  3622 ;; Tracked objects:
  3623 ;;		On entry : 0/0
  3624 ;;		On exit  : 0/0
  3625 ;;		Unchanged: 0/0
  3626 ;; Data sizes:     COMRAM   BANK0   BANK1   BANK2   BANK3   BANK4   BANK5   BANK6   BANK7   BANK8   BANK9  BANK10  BANK1
      +1  BANK12  BANK13  BANK14  BANK15
  3627 ;;      Params:         0       0       0       0       0       0       0       0       0       0       0       0       
      +0       0       0       0       0
  3628 ;;      Locals:         0       0       0       0       0       0       0       0       0       0       0       0       
      +0       0       0       0       0
  3629 ;;      Temps:          0       0       0       0       0       0       0       0       0       0       0       0       
      +0       0       0       0       0
  3630 ;;      Totals:         0       0       0       0       0       0       0       0       0       0       0       0       
      +0       0       0       0       0
  3631 ;;Total ram usage:        0 bytes
  3632 ;; Hardware stack levels used: 1
  3633 ;; Hardware stack levels required when called: 2
  3634 ;; This function calls:
  3635 ;;		_LED_Turn_OFF
  3636 ;; This function is called by:
  3637 ;;		_RB4_ISR
  3638 ;;		_RB5_ISR
  3639 ;;		_RB6_ISR
  3640 ;;		_RB7_ISR
  3641 ;; This function uses a non-reentrant model
  3642 ;;
  3643                           
  3644                           	psect	text21
  3645   001D82                     __ptext21:
  3646                           	callstack 0
  3647   001D82                     _RB5_ISR_LOW_TT:
  3648                           	callstack 20
  3649   001D82                     
  3650                           ;Drivers_Main.c: 114:     Ret = LED_Turn_OFF(&led2);
  3651   001D82  0E49               	movlw	low _led2
  3652   001D84  6E2A               	movwf	LED_Turn_OFF@led^0,c
  3653   001D86  EC0E  F00D         	call	_LED_Turn_OFF	;wreg free
  3654   001D8A  6E4B               	movwf	_Ret^0,c
  3655   001D8C  0012               	return		;funcret
  3656   001D8E                     __end_of_RB5_ISR_LOW_TT:
  3657                           	callstack 0
  3658                           
  3659 ;; *************** function _RB4_ISR_LOW_TT *****************
  3660 ;; Defined at:
  3661 ;;		line 107 in file "Drivers_Main.c"
  3662 ;; Parameters:    Size  Location     Type
  3663 ;;		None
  3664 ;; Auto vars:     Size  Location     Type
  3665 ;;		None
  3666 ;; Return value:  Size  Location     Type
  3667 ;;                  1    wreg      void 
  3668 ;; Registers used:
  3669 ;;		wreg, fsr2l, fsr2h, status,2, status,0, prodl, prodh, cstack
  3670 ;; Tracked objects:
  3671 ;;		On entry : 0/0
  3672 ;;		On exit  : 0/0
  3673 ;;		Unchanged: 0/0
  3674 ;; Data sizes:     COMRAM   BANK0   BANK1   BANK2   BANK3   BANK4   BANK5   BANK6   BANK7   BANK8   BANK9  BANK10  BANK1
      +1  BANK12  BANK13  BANK14  BANK15
  3675 ;;      Params:         0       0       0       0       0       0       0       0       0       0       0       0       
      +0       0       0       0       0
  3676 ;;      Locals:         0       0       0       0       0       0       0       0       0       0       0       0       
      +0       0       0       0       0
  3677 ;;      Temps:          0       0       0       0       0       0       0       0       0       0       0       0       
      +0       0       0       0       0
  3678 ;;      Totals:         0       0       0       0       0       0       0       0       0       0       0       0       
      +0       0       0       0       0
  3679 ;;Total ram usage:        0 bytes
  3680 ;; Hardware stack levels used: 1
  3681 ;; Hardware stack levels required when called: 2
  3682 ;; This function calls:
  3683 ;;		_LED_Turn_ON
  3684 ;; This function is called by:
  3685 ;;		_RB4_ISR
  3686 ;;		_RB5_ISR
  3687 ;;		_RB6_ISR
  3688 ;;		_RB7_ISR
  3689 ;; This function uses a non-reentrant model
  3690 ;;
  3691                           
  3692                           	psect	text22
  3693   001D8E                     __ptext22:
  3694                           	callstack 0
  3695   001D8E                     _RB4_ISR_LOW_TT:
  3696                           	callstack 20
  3697   001D8E                     
  3698                           ;Drivers_Main.c: 108:     Ret = LED_Turn_ON(&led2);
  3699   001D8E  0E49               	movlw	low _led2
  3700   001D90  6E2A               	movwf	LED_Turn_ON@led^0,c
  3701   001D92  EC49  F00D         	call	_LED_Turn_ON	;wreg free
  3702   001D96  6E4B               	movwf	_Ret^0,c
  3703   001D98  0012               	return		;funcret
  3704   001D9A                     __end_of_RB4_ISR_LOW_TT:
  3705                           	callstack 0
  3706                           
  3707 ;; *************** function _RB7_ISR_LOW_TT *****************
  3708 ;; Defined at:
  3709 ;;		line 125 in file "Drivers_Main.c"
  3710 ;; Parameters:    Size  Location     Type
  3711 ;;		None
  3712 ;; Auto vars:     Size  Location     Type
  3713 ;;		None
  3714 ;; Return value:  Size  Location     Type
  3715 ;;                  1    wreg      void 
  3716 ;; Registers used:
  3717 ;;		wreg, fsr2l, fsr2h, status,2, status,0, prodl, prodh, cstack
  3718 ;; Tracked objects:
  3719 ;;		On entry : 0/0
  3720 ;;		On exit  : 0/0
  3721 ;;		Unchanged: 0/0
  3722 ;; Data sizes:     COMRAM   BANK0   BANK1   BANK2   BANK3   BANK4   BANK5   BANK6   BANK7   BANK8   BANK9  BANK10  BANK1
      +1  BANK12  BANK13  BANK14  BANK15
  3723 ;;      Params:         0       0       0       0       0       0       0       0       0       0       0       0       
      +0       0       0       0       0
  3724 ;;      Locals:         0       0       0       0       0       0       0       0       0       0       0       0       
      +0       0       0       0       0
  3725 ;;      Temps:          0       0       0       0       0       0       0       0       0       0       0       0       
      +0       0       0       0       0
  3726 ;;      Totals:         0       0       0       0       0       0       0       0       0       0       0       0       
      +0       0       0       0       0
  3727 ;;Total ram usage:        0 bytes
  3728 ;; Hardware stack levels used: 1
  3729 ;; Hardware stack levels required when called: 2
  3730 ;; This function calls:
  3731 ;;		_LED_Turn_OFF
  3732 ;; This function is called by:
  3733 ;;		_RB4_ISR
  3734 ;;		_RB5_ISR
  3735 ;;		_RB6_ISR
  3736 ;;		_RB7_ISR
  3737 ;; This function uses a non-reentrant model
  3738 ;;
  3739                           
  3740                           	psect	text23
  3741   001D9A                     __ptext23:
  3742                           	callstack 0
  3743   001D9A                     _RB7_ISR_LOW_TT:
  3744                           	callstack 20
  3745   001D9A                     
  3746                           ;Drivers_Main.c: 126:     Ret = LED_Turn_OFF(&led4);
  3747   001D9A  0E47               	movlw	low _led4
  3748   001D9C  6E2A               	movwf	LED_Turn_OFF@led^0,c
  3749   001D9E  EC0E  F00D         	call	_LED_Turn_OFF	;wreg free
  3750   001DA2  6E4B               	movwf	_Ret^0,c
  3751   001DA4  0012               	return		;funcret
  3752   001DA6                     __end_of_RB7_ISR_LOW_TT:
  3753                           	callstack 0
  3754                           
  3755 ;; *************** function _RB6_ISR_HIGH_TT *****************
  3756 ;; Defined at:
  3757 ;;		line 116 in file "Drivers_Main.c"
  3758 ;; Parameters:    Size  Location     Type
  3759 ;;		None
  3760 ;; Auto vars:     Size  Location     Type
  3761 ;;		None
  3762 ;; Return value:  Size  Location     Type
  3763 ;;                  1    wreg      void 
  3764 ;; Registers used:
  3765 ;;		wreg, fsr2l, fsr2h, status,2, status,0, prodl, prodh, cstack
  3766 ;; Tracked objects:
  3767 ;;		On entry : 0/0
  3768 ;;		On exit  : 0/0
  3769 ;;		Unchanged: 0/0
  3770 ;; Data sizes:     COMRAM   BANK0   BANK1   BANK2   BANK3   BANK4   BANK5   BANK6   BANK7   BANK8   BANK9  BANK10  BANK1
      +1  BANK12  BANK13  BANK14  BANK15
  3771 ;;      Params:         0       0       0       0       0       0       0       0       0       0       0       0       
      +0       0       0       0       0
  3772 ;;      Locals:         0       0       0       0       0       0       0       0       0       0       0       0       
      +0       0       0       0       0
  3773 ;;      Temps:          0       0       0       0       0       0       0       0       0       0       0       0       
      +0       0       0       0       0
  3774 ;;      Totals:         0       0       0       0       0       0       0       0       0       0       0       0       
      +0       0       0       0       0
  3775 ;;Total ram usage:        0 bytes
  3776 ;; Hardware stack levels used: 1
  3777 ;; Hardware stack levels required when called: 2
  3778 ;; This function calls:
  3779 ;;		_LED_Turn_ON
  3780 ;; This function is called by:
  3781 ;;		_RB4_ISR
  3782 ;;		_RB5_ISR
  3783 ;;		_RB6_ISR
  3784 ;;		_RB7_ISR
  3785 ;; This function uses a non-reentrant model
  3786 ;;
  3787                           
  3788                           	psect	text24
  3789   001DA6                     __ptext24:
  3790                           	callstack 0
  3791   001DA6                     _RB6_ISR_HIGH_TT:
  3792                           	callstack 20
  3793   001DA6                     
  3794                           ;Drivers_Main.c: 117:     Ret = LED_Turn_ON(&led3);
  3795   001DA6  0E48               	movlw	low _led3
  3796   001DA8  6E2A               	movwf	LED_Turn_ON@led^0,c
  3797   001DAA  EC49  F00D         	call	_LED_Turn_ON	;wreg free
  3798   001DAE  6E4B               	movwf	_Ret^0,c
  3799   001DB0  0012               	return		;funcret
  3800   001DB2                     __end_of_RB6_ISR_HIGH_TT:
  3801                           	callstack 0
  3802                           
  3803 ;; *************** function _RB5_ISR_HIGH_TT *****************
  3804 ;; Defined at:
  3805 ;;		line 110 in file "Drivers_Main.c"
  3806 ;; Parameters:    Size  Location     Type
  3807 ;;		None
  3808 ;; Auto vars:     Size  Location     Type
  3809 ;;		None
  3810 ;; Return value:  Size  Location     Type
  3811 ;;                  1    wreg      void 
  3812 ;; Registers used:
  3813 ;;		wreg, fsr2l, fsr2h, status,2, status,0, prodl, prodh, cstack
  3814 ;; Tracked objects:
  3815 ;;		On entry : 0/0
  3816 ;;		On exit  : 0/0
  3817 ;;		Unchanged: 0/0
  3818 ;; Data sizes:     COMRAM   BANK0   BANK1   BANK2   BANK3   BANK4   BANK5   BANK6   BANK7   BANK8   BANK9  BANK10  BANK1
      +1  BANK12  BANK13  BANK14  BANK15
  3819 ;;      Params:         0       0       0       0       0       0       0       0       0       0       0       0       
      +0       0       0       0       0
  3820 ;;      Locals:         0       0       0       0       0       0       0       0       0       0       0       0       
      +0       0       0       0       0
  3821 ;;      Temps:          0       0       0       0       0       0       0       0       0       0       0       0       
      +0       0       0       0       0
  3822 ;;      Totals:         0       0       0       0       0       0       0       0       0       0       0       0       
      +0       0       0       0       0
  3823 ;;Total ram usage:        0 bytes
  3824 ;; Hardware stack levels used: 1
  3825 ;; Hardware stack levels required when called: 2
  3826 ;; This function calls:
  3827 ;;		_LED_Turn_OFF
  3828 ;; This function is called by:
  3829 ;;		_RB4_ISR
  3830 ;;		_RB5_ISR
  3831 ;;		_RB6_ISR
  3832 ;;		_RB7_ISR
  3833 ;; This function uses a non-reentrant model
  3834 ;;
  3835                           
  3836                           	psect	text25
  3837   001DB2                     __ptext25:
  3838                           	callstack 0
  3839   001DB2                     _RB5_ISR_HIGH_TT:
  3840                           	callstack 20
  3841   001DB2                     
  3842                           ;Drivers_Main.c: 111:     Ret = LED_Turn_OFF(&led1);
  3843   001DB2  0E4A               	movlw	low _led1
  3844   001DB4  6E2A               	movwf	LED_Turn_OFF@led^0,c
  3845   001DB6  EC0E  F00D         	call	_LED_Turn_OFF	;wreg free
  3846   001DBA  6E4B               	movwf	_Ret^0,c
  3847   001DBC  0012               	return		;funcret
  3848   001DBE                     __end_of_RB5_ISR_HIGH_TT:
  3849                           	callstack 0
  3850                           
  3851 ;; *************** function _RB4_ISR_HIGH_TT *****************
  3852 ;; Defined at:
  3853 ;;		line 104 in file "Drivers_Main.c"
  3854 ;; Parameters:    Size  Location     Type
  3855 ;;		None
  3856 ;; Auto vars:     Size  Location     Type
  3857 ;;		None
  3858 ;; Return value:  Size  Location     Type
  3859 ;;                  1    wreg      void 
  3860 ;; Registers used:
  3861 ;;		wreg, fsr2l, fsr2h, status,2, status,0, prodl, prodh, cstack
  3862 ;; Tracked objects:
  3863 ;;		On entry : 0/0
  3864 ;;		On exit  : 0/0
  3865 ;;		Unchanged: 0/0
  3866 ;; Data sizes:     COMRAM   BANK0   BANK1   BANK2   BANK3   BANK4   BANK5   BANK6   BANK7   BANK8   BANK9  BANK10  BANK1
      +1  BANK12  BANK13  BANK14  BANK15
  3867 ;;      Params:         0       0       0       0       0       0       0       0       0       0       0       0       
      +0       0       0       0       0
  3868 ;;      Locals:         0       0       0       0       0       0       0       0       0       0       0       0       
      +0       0       0       0       0
  3869 ;;      Temps:          0       0       0       0       0       0       0       0       0       0       0       0       
      +0       0       0       0       0
  3870 ;;      Totals:         0       0       0       0       0       0       0       0       0       0       0       0       
      +0       0       0       0       0
  3871 ;;Total ram usage:        0 bytes
  3872 ;; Hardware stack levels used: 1
  3873 ;; Hardware stack levels required when called: 2
  3874 ;; This function calls:
  3875 ;;		_LED_Turn_ON
  3876 ;; This function is called by:
  3877 ;;		_RB4_ISR
  3878 ;;		_RB5_ISR
  3879 ;;		_RB6_ISR
  3880 ;;		_RB7_ISR
  3881 ;; This function uses a non-reentrant model
  3882 ;;
  3883                           
  3884                           	psect	text26
  3885   001DBE                     __ptext26:
  3886                           	callstack 0
  3887   001DBE                     _RB4_ISR_HIGH_TT:
  3888                           	callstack 20
  3889   001DBE                     
  3890                           ;Drivers_Main.c: 105:     Ret = LED_Turn_ON(&led1);
  3891   001DBE  0E4A               	movlw	low _led1
  3892   001DC0  6E2A               	movwf	LED_Turn_ON@led^0,c
  3893   001DC2  EC49  F00D         	call	_LED_Turn_ON	;wreg free
  3894   001DC6  6E4B               	movwf	_Ret^0,c
  3895   001DC8  0012               	return		;funcret
  3896   001DCA                     __end_of_RB4_ISR_HIGH_TT:
  3897                           	callstack 0
  3898                           
  3899 ;; *************** function _RB7_ISR_HIGH_TT *****************
  3900 ;; Defined at:
  3901 ;;		line 122 in file "Drivers_Main.c"
  3902 ;; Parameters:    Size  Location     Type
  3903 ;;		None
  3904 ;; Auto vars:     Size  Location     Type
  3905 ;;		None
  3906 ;; Return value:  Size  Location     Type
  3907 ;;                  1    wreg      void 
  3908 ;; Registers used:
  3909 ;;		wreg, fsr2l, fsr2h, status,2, status,0, prodl, prodh, cstack
  3910 ;; Tracked objects:
  3911 ;;		On entry : 0/0
  3912 ;;		On exit  : 0/0
  3913 ;;		Unchanged: 0/0
  3914 ;; Data sizes:     COMRAM   BANK0   BANK1   BANK2   BANK3   BANK4   BANK5   BANK6   BANK7   BANK8   BANK9  BANK10  BANK1
      +1  BANK12  BANK13  BANK14  BANK15
  3915 ;;      Params:         0       0       0       0       0       0       0       0       0       0       0       0       
      +0       0       0       0       0
  3916 ;;      Locals:         0       0       0       0       0       0       0       0       0       0       0       0       
      +0       0       0       0       0
  3917 ;;      Temps:          0       0       0       0       0       0       0       0       0       0       0       0       
      +0       0       0       0       0
  3918 ;;      Totals:         0       0       0       0       0       0       0       0       0       0       0       0       
      +0       0       0       0       0
  3919 ;;Total ram usage:        0 bytes
  3920 ;; Hardware stack levels used: 1
  3921 ;; Hardware stack levels required when called: 2
  3922 ;; This function calls:
  3923 ;;		_LED_Turn_OFF
  3924 ;; This function is called by:
  3925 ;;		_RB4_ISR
  3926 ;;		_RB5_ISR
  3927 ;;		_RB6_ISR
  3928 ;;		_RB7_ISR
  3929 ;; This function uses a non-reentrant model
  3930 ;;
  3931                           
  3932                           	psect	text27
  3933   001DCA                     __ptext27:
  3934                           	callstack 0
  3935   001DCA                     _RB7_ISR_HIGH_TT:
  3936                           	callstack 20
  3937   001DCA                     
  3938                           ;Drivers_Main.c: 123:     Ret = LED_Turn_OFF(&led3);
  3939   001DCA  0E48               	movlw	low _led3
  3940   001DCC  6E2A               	movwf	LED_Turn_OFF@led^0,c
  3941   001DCE  EC0E  F00D         	call	_LED_Turn_OFF	;wreg free
  3942   001DD2  6E4B               	movwf	_Ret^0,c
  3943   001DD4  0012               	return		;funcret
  3944   001DD6                     __end_of_RB7_ISR_HIGH_TT:
  3945                           	callstack 0
  3946                           
  3947 ;; *************** function _LED_Turn_OFF *****************
  3948 ;; Defined at:
  3949 ;;		line 70 in file "ECUAL/LED/ECU_LED.c"
  3950 ;; Parameters:    Size  Location     Type
  3951 ;;  led             1    8[COMRAM] PTR const struct .
  3952 ;;		 -> led4(1), led3(1), led2(1), led1(1), 
  3953 ;; Auto vars:     Size  Location     Type
  3954 ;;  PIN_OBJ         1   11[COMRAM] struct .
  3955 ;;  Retval          1   10[COMRAM] enum E3654
  3956 ;; Return value:  Size  Location     Type
  3957 ;;                  1    wreg      enum E3654
  3958 ;; Registers used:
  3959 ;;		wreg, fsr2l, fsr2h, status,2, status,0, prodl, prodh, cstack
  3960 ;; Tracked objects:
  3961 ;;		On entry : 0/0
  3962 ;;		On exit  : 0/0
  3963 ;;		Unchanged: 0/0
  3964 ;; Data sizes:     COMRAM   BANK0   BANK1   BANK2   BANK3   BANK4   BANK5   BANK6   BANK7   BANK8   BANK9  BANK10  BANK1
      +1  BANK12  BANK13  BANK14  BANK15
  3965 ;;      Params:         1       0       0       0       0       0       0       0       0       0       0       0       
      +0       0       0       0       0
  3966 ;;      Locals:         2       0       0       0       0       0       0       0       0       0       0       0       
      +0       0       0       0       0
  3967 ;;      Temps:          1       0       0       0       0       0       0       0       0       0       0       0       
      +0       0       0       0       0
  3968 ;;      Totals:         4       0       0       0       0       0       0       0       0       0       0       0       
      +0       0       0       0       0
  3969 ;;Total ram usage:        4 bytes
  3970 ;; Hardware stack levels used: 1
  3971 ;; Hardware stack levels required when called: 1
  3972 ;; This function calls:
  3973 ;;		i2_GPIO_PIN_WRITE_LOGIC
  3974 ;; This function is called by:
  3975 ;;		_RB5_ISR_HIGH_TT
  3976 ;;		_RB5_ISR_LOW_TT
  3977 ;;		_RB7_ISR_HIGH_TT
  3978 ;;		_RB7_ISR_LOW_TT
  3979 ;; This function uses a non-reentrant model
  3980 ;;
  3981                           
  3982                           	psect	text28
  3983   001A1C                     __ptext28:
  3984                           	callstack 0
  3985   001A1C                     _LED_Turn_OFF:
  3986                           	callstack 20
  3987   001A1C                     
  3988                           ;ECUAL/LED/ECU_LED.c: 72:     if(((void*)0) == led){
  3989   001A1C  502A               	movf	LED_Turn_OFF@led^0,w,c
  3990   001A1E  A4D8               	btfss	status,2,c
  3991   001A20  EF14  F00D         	goto	i2u399_41
  3992   001A24  EF16  F00D         	goto	i2u399_40
  3993   001A28                     i2u399_41:
  3994   001A28  EF1A  F00D         	goto	i2l297
  3995   001A2C                     i2u399_40:
  3996   001A2C                     
  3997                           ;ECUAL/LED/ECU_LED.c: 73:         Retval = E_NOT_OK;
  3998   001A2C  0E00               	movlw	0
  3999   001A2E  6E2C               	movwf	LED_Turn_OFF@Retval^0,c
  4000                           
  4001                           ;ECUAL/LED/ECU_LED.c: 74:     }
  4002   001A30  EF47  F00D         	goto	i2l4352
  4003   001A34                     i2l297:
  4004                           
  4005                           ;ECUAL/LED/ECU_LED.c: 76:         PIN_CONFIG_T PIN_OBJ = {
  4006   001A34  C01F  F02D         	movff	LED_Turn_OFF@F3786,LED_Turn_OFF@PIN_OBJ
  4007   001A38  502A               	movf	LED_Turn_OFF@led^0,w,c
  4008   001A3A  6ED9               	movwf	fsr2l,c
  4009   001A3C  6ADA               	clrf	fsr2h,c
  4010   001A3E  50DF               	movf	223,w,c
  4011   001A40  0B07               	andlw	7
  4012   001A42  6E2B               	movwf	??_LED_Turn_OFF^0,c
  4013   001A44  502D               	movf	LED_Turn_OFF@PIN_OBJ^0,w,c
  4014   001A46  182B               	xorwf	??_LED_Turn_OFF^0,w,c
  4015   001A48  0BF8               	andlw	-8
  4016   001A4A  182B               	xorwf	??_LED_Turn_OFF^0,w,c
  4017   001A4C  6E2D               	movwf	LED_Turn_OFF@PIN_OBJ^0,c
  4018   001A4E  502A               	movf	LED_Turn_OFF@led^0,w,c
  4019   001A50  6ED9               	movwf	fsr2l,c
  4020   001A52  6ADA               	clrf	fsr2h,c
  4021   001A54  30DF               	rrcf	223,w,c
  4022   001A56  32E8               	rrcf	wreg,f,c
  4023   001A58  32E8               	rrcf	wreg,f,c
  4024   001A5A  0B07               	andlw	7
  4025   001A5C  6E2B               	movwf	??_LED_Turn_OFF^0,c
  4026   001A5E  462B               	rlncf	??_LED_Turn_OFF^0,f,c
  4027   001A60  462B               	rlncf	??_LED_Turn_OFF^0,f,c
  4028   001A62  462B               	rlncf	??_LED_Turn_OFF^0,f,c
  4029   001A64  502D               	movf	LED_Turn_OFF@PIN_OBJ^0,w,c
  4030   001A66  182B               	xorwf	??_LED_Turn_OFF^0,w,c
  4031   001A68  0BC7               	andlw	-57
  4032   001A6A  182B               	xorwf	??_LED_Turn_OFF^0,w,c
  4033   001A6C  6E2D               	movwf	LED_Turn_OFF@PIN_OBJ^0,c
  4034   001A6E  9C2D               	bcf	LED_Turn_OFF@PIN_OBJ^0,6,c
  4035   001A70  502A               	movf	LED_Turn_OFF@led^0,w,c
  4036   001A72  6ED9               	movwf	fsr2l,c
  4037   001A74  6ADA               	clrf	fsr2h,c
  4038   001A76  ACDF               	btfss	indf2,6,c
  4039   001A78  D002               	bra	i2u400_45
  4040   001A7A  8E2D               	bsf	LED_Turn_OFF@PIN_OBJ^0,7,c
  4041   001A7C  D001               	bra	i2u400_47
  4042   001A7E                     i2u400_45:
  4043   001A7E  9E2D               	bcf	LED_Turn_OFF@PIN_OBJ^0,7,c
  4044   001A80                     i2u400_47:
  4045   001A80                     
  4046                           ;ECUAL/LED/ECU_LED.c: 83:         Retval = GPIO_PIN_WRITE_LOGIC(&PIN_OBJ , GPIO_LOW);
  4047   001A80  0E2D               	movlw	low LED_Turn_OFF@PIN_OBJ
  4048   001A82  6E22               	movwf	i2GPIO_PIN_WRITE_LOGIC@_PIN_CONFIG^0,c
  4049   001A84  0E00               	movlw	0
  4050   001A86  6E23               	movwf	i2GPIO_PIN_WRITE_LOGIC@LOGIC^0,c
  4051   001A88  ECCC  F00A         	call	i2_GPIO_PIN_WRITE_LOGIC	;wreg free
  4052   001A8C  6E2C               	movwf	LED_Turn_OFF@Retval^0,c
  4053   001A8E                     i2l4352:
  4054                           
  4055                           ;ECUAL/LED/ECU_LED.c: 85:     return Retval;
  4056   001A8E  502C               	movf	LED_Turn_OFF@Retval^0,w,c
  4057   001A90  0012               	return		;funcret
  4058   001A92                     __end_of_LED_Turn_OFF:
  4059                           	callstack 0
  4060                           
  4061 ;; *************** function _LED_Turn_ON *****************
  4062 ;; Defined at:
  4063 ;;		line 44 in file "ECUAL/LED/ECU_LED.c"
  4064 ;; Parameters:    Size  Location     Type
  4065 ;;  led             1    8[COMRAM] PTR const struct .
  4066 ;;		 -> led4(1), led3(1), led2(1), led1(1), 
  4067 ;; Auto vars:     Size  Location     Type
  4068 ;;  PIN_OBJ         1   11[COMRAM] struct .
  4069 ;;  Retval          1   10[COMRAM] enum E3654
  4070 ;; Return value:  Size  Location     Type
  4071 ;;                  1    wreg      enum E3654
  4072 ;; Registers used:
  4073 ;;		wreg, fsr2l, fsr2h, status,2, status,0, prodl, prodh, cstack
  4074 ;; Tracked objects:
  4075 ;;		On entry : 0/0
  4076 ;;		On exit  : 0/0
  4077 ;;		Unchanged: 0/0
  4078 ;; Data sizes:     COMRAM   BANK0   BANK1   BANK2   BANK3   BANK4   BANK5   BANK6   BANK7   BANK8   BANK9  BANK10  BANK1
      +1  BANK12  BANK13  BANK14  BANK15
  4079 ;;      Params:         1       0       0       0       0       0       0       0       0       0       0       0       
      +0       0       0       0       0
  4080 ;;      Locals:         2       0       0       0       0       0       0       0       0       0       0       0       
      +0       0       0       0       0
  4081 ;;      Temps:          1       0       0       0       0       0       0       0       0       0       0       0       
      +0       0       0       0       0
  4082 ;;      Totals:         4       0       0       0       0       0       0       0       0       0       0       0       
      +0       0       0       0       0
  4083 ;;Total ram usage:        4 bytes
  4084 ;; Hardware stack levels used: 1
  4085 ;; Hardware stack levels required when called: 1
  4086 ;; This function calls:
  4087 ;;		i2_GPIO_PIN_WRITE_LOGIC
  4088 ;; This function is called by:
  4089 ;;		_RB4_ISR_HIGH_TT
  4090 ;;		_RB4_ISR_LOW_TT
  4091 ;;		_RB6_ISR_HIGH_TT
  4092 ;;		_RB6_ISR_LOW_TT
  4093 ;; This function uses a non-reentrant model
  4094 ;;
  4095                           
  4096                           	psect	text29
  4097   001A92                     __ptext29:
  4098                           	callstack 0
  4099   001A92                     _LED_Turn_ON:
  4100                           	callstack 20
  4101   001A92                     
  4102                           ;ECUAL/LED/ECU_LED.c: 46:     if(((void*)0) == led){
  4103   001A92  502A               	movf	LED_Turn_ON@led^0,w,c
  4104   001A94  A4D8               	btfss	status,2,c
  4105   001A96  EF4F  F00D         	goto	i2u397_41
  4106   001A9A  EF51  F00D         	goto	i2u397_40
  4107   001A9E                     i2u397_41:
  4108   001A9E  EF55  F00D         	goto	i2l290
  4109   001AA2                     i2u397_40:
  4110   001AA2                     
  4111                           ;ECUAL/LED/ECU_LED.c: 47:         Retval = E_NOT_OK;
  4112   001AA2  0E00               	movlw	0
  4113   001AA4  6E2C               	movwf	LED_Turn_ON@Retval^0,c
  4114                           
  4115                           ;ECUAL/LED/ECU_LED.c: 48:     }
  4116   001AA6  EF82  F00D         	goto	i2l4336
  4117   001AAA                     i2l290:
  4118                           
  4119                           ;ECUAL/LED/ECU_LED.c: 50:         PIN_CONFIG_T PIN_OBJ = {
  4120   001AAA  C020  F02D         	movff	LED_Turn_ON@F3781,LED_Turn_ON@PIN_OBJ
  4121   001AAE  502A               	movf	LED_Turn_ON@led^0,w,c
  4122   001AB0  6ED9               	movwf	fsr2l,c
  4123   001AB2  6ADA               	clrf	fsr2h,c
  4124   001AB4  50DF               	movf	223,w,c
  4125   001AB6  0B07               	andlw	7
  4126   001AB8  6E2B               	movwf	??_LED_Turn_ON^0,c
  4127   001ABA  502D               	movf	LED_Turn_ON@PIN_OBJ^0,w,c
  4128   001ABC  182B               	xorwf	??_LED_Turn_ON^0,w,c
  4129   001ABE  0BF8               	andlw	-8
  4130   001AC0  182B               	xorwf	??_LED_Turn_ON^0,w,c
  4131   001AC2  6E2D               	movwf	LED_Turn_ON@PIN_OBJ^0,c
  4132   001AC4  502A               	movf	LED_Turn_ON@led^0,w,c
  4133   001AC6  6ED9               	movwf	fsr2l,c
  4134   001AC8  6ADA               	clrf	fsr2h,c
  4135   001ACA  30DF               	rrcf	223,w,c
  4136   001ACC  32E8               	rrcf	wreg,f,c
  4137   001ACE  32E8               	rrcf	wreg,f,c
  4138   001AD0  0B07               	andlw	7
  4139   001AD2  6E2B               	movwf	??_LED_Turn_ON^0,c
  4140   001AD4  462B               	rlncf	??_LED_Turn_ON^0,f,c
  4141   001AD6  462B               	rlncf	??_LED_Turn_ON^0,f,c
  4142   001AD8  462B               	rlncf	??_LED_Turn_ON^0,f,c
  4143   001ADA  502D               	movf	LED_Turn_ON@PIN_OBJ^0,w,c
  4144   001ADC  182B               	xorwf	??_LED_Turn_ON^0,w,c
  4145   001ADE  0BC7               	andlw	-57
  4146   001AE0  182B               	xorwf	??_LED_Turn_ON^0,w,c
  4147   001AE2  6E2D               	movwf	LED_Turn_ON@PIN_OBJ^0,c
  4148   001AE4  9C2D               	bcf	LED_Turn_ON@PIN_OBJ^0,6,c
  4149   001AE6  502A               	movf	LED_Turn_ON@led^0,w,c
  4150   001AE8  6ED9               	movwf	fsr2l,c
  4151   001AEA  6ADA               	clrf	fsr2h,c
  4152   001AEC  ACDF               	btfss	indf2,6,c
  4153   001AEE  D002               	bra	i2u398_45
  4154   001AF0  8E2D               	bsf	LED_Turn_ON@PIN_OBJ^0,7,c
  4155   001AF2  D001               	bra	i2u398_47
  4156   001AF4                     i2u398_45:
  4157   001AF4  9E2D               	bcf	LED_Turn_ON@PIN_OBJ^0,7,c
  4158   001AF6                     i2u398_47:
  4159   001AF6                     
  4160                           ;ECUAL/LED/ECU_LED.c: 57:         Retval = GPIO_PIN_WRITE_LOGIC(&PIN_OBJ , GPIO_HIGH);
  4161   001AF6  0E2D               	movlw	low LED_Turn_ON@PIN_OBJ
  4162   001AF8  6E22               	movwf	i2GPIO_PIN_WRITE_LOGIC@_PIN_CONFIG^0,c
  4163   001AFA  0E01               	movlw	1
  4164   001AFC  6E23               	movwf	i2GPIO_PIN_WRITE_LOGIC@LOGIC^0,c
  4165   001AFE  ECCC  F00A         	call	i2_GPIO_PIN_WRITE_LOGIC	;wreg free
  4166   001B02  6E2C               	movwf	LED_Turn_ON@Retval^0,c
  4167   001B04                     i2l4336:
  4168                           
  4169                           ;ECUAL/LED/ECU_LED.c: 59:     return Retval;
  4170   001B04  502C               	movf	LED_Turn_ON@Retval^0,w,c
  4171   001B06  0012               	return		;funcret
  4172   001B08                     __end_of_LED_Turn_ON:
  4173                           	callstack 0
  4174                           
  4175 ;; *************** function i2_GPIO_PIN_WRITE_LOGIC *****************
  4176 ;; Defined at:
  4177 ;;		line 84 in file "MCAL/GPIO/HAL_GPIO.c"
  4178 ;; Parameters:    Size  Location     Type
  4179 ;;  _PIN_CONFIG     1    0[COMRAM] PTR const struct .
  4180 ;;		 -> lcd2(10), lcd1(6), RELAY_TURN_OFF@pin(1), RELAY_TURN_ON@pin(1), 
  4181 ;;		 -> RELAY_INITIALIZE@pin(1), LED_Turn_OFF@PIN_OBJ(1), LED_Turn_ON@PIN_OBJ(1), LED_INITIALIZE@PIN_OBJ(1), 
  4182 ;;  LOGIC           1    1[COMRAM] enum E3658
  4183 ;; Auto vars:     Size  Location     Type
  4184 ;;  Retval          1    7[COMRAM] enum E3654
  4185 ;; Return value:  Size  Location     Type
  4186 ;;                  1    wreg      enum E3654
  4187 ;; Registers used:
  4188 ;;		wreg, fsr2l, fsr2h, status,2, status,0, prodl, prodh
  4189 ;; Tracked objects:
  4190 ;;		On entry : 0/0
  4191 ;;		On exit  : 0/0
  4192 ;;		Unchanged: 0/0
  4193 ;; Data sizes:     COMRAM   BANK0   BANK1   BANK2   BANK3   BANK4   BANK5   BANK6   BANK7   BANK8   BANK9  BANK10  BANK1
      +1  BANK12  BANK13  BANK14  BANK15
  4194 ;;      Params:         2       0       0       0       0       0       0       0       0       0       0       0       
      +0       0       0       0       0
  4195 ;;      Locals:         1       0       0       0       0       0       0       0       0       0       0       0       
      +0       0       0       0       0
  4196 ;;      Temps:          5       0       0       0       0       0       0       0       0       0       0       0       
      +0       0       0       0       0
  4197 ;;      Totals:         8       0       0       0       0       0       0       0       0       0       0       0       
      +0       0       0       0       0
  4198 ;;Total ram usage:        8 bytes
  4199 ;; Hardware stack levels used: 1
  4200 ;; This function calls:
  4201 ;;		Nothing
  4202 ;; This function is called by:
  4203 ;;		_LED_Turn_ON
  4204 ;;		_LED_Turn_OFF
  4205 ;; This function uses a non-reentrant model
  4206 ;;
  4207                           
  4208                           	psect	text30
  4209   001598                     __ptext30:
  4210                           	callstack 0
  4211   001598                     i2_GPIO_PIN_WRITE_LOGIC:
  4212                           	callstack 20
  4213   001598                     
  4214                           ;MCAL/GPIO/HAL_GPIO.c: 86:     if(((void*)0) == _PIN_CONFIG || _PIN_CONFIG->PIN >= 8){
  4215   001598  5022               	movf	i2GPIO_PIN_WRITE_LOGIC@_PIN_CONFIG^0,w,c
  4216   00159A  B4D8               	btfsc	status,2,c
  4217   00159C  EFD2  F00A         	goto	i2u389_41
  4218   0015A0  EFD4  F00A         	goto	i2u389_40
  4219   0015A4                     i2u389_41:
  4220   0015A4  EFE4  F00A         	goto	i2l4224
  4221   0015A8                     i2u389_40:
  4222   0015A8  5022               	movf	i2GPIO_PIN_WRITE_LOGIC@_PIN_CONFIG^0,w,c
  4223   0015AA  6ED9               	movwf	fsr2l,c
  4224   0015AC  6ADA               	clrf	fsr2h,c
  4225   0015AE  30DF               	rrcf	223,w,c
  4226   0015B0  32E8               	rrcf	wreg,f,c
  4227   0015B2  32E8               	rrcf	wreg,f,c
  4228   0015B4  0B07               	andlw	7
  4229   0015B6  6E24               	movwf	??i2_GPIO_PIN_WRITE_LOGIC^0,c
  4230   0015B8  0E07               	movlw	7
  4231   0015BA  6424               	cpfsgt	??i2_GPIO_PIN_WRITE_LOGIC^0,c
  4232   0015BC  EFE2  F00A         	goto	i2u390_41
  4233   0015C0  EFE4  F00A         	goto	i2u390_40
  4234   0015C4                     i2u390_41:
  4235   0015C4  EF3D  F00B         	goto	i2l4238
  4236   0015C8                     i2u390_40:
  4237   0015C8                     i2l4224:
  4238                           
  4239                           ;MCAL/GPIO/HAL_GPIO.c: 87:         Retval= E_NOT_OK;
  4240   0015C8  0E00               	movlw	0
  4241   0015CA  6E29               	movwf	i2GPIO_PIN_WRITE_LOGIC@Retval^0,c
  4242                           
  4243                           ;MCAL/GPIO/HAL_GPIO.c: 88:     }
  4244   0015CC  EF52  F00B         	goto	i2l4240
  4245   0015D0                     i2l4226:
  4246                           
  4247                           ;MCAL/GPIO/HAL_GPIO.c: 92:                 (*LAT_REG[_PIN_CONFIG->PORT] &= ~(((uint8)0x0
      +                          1) << _PIN_CONFIG->PIN));
  4248   0015D0  5022               	movf	i2GPIO_PIN_WRITE_LOGIC@_PIN_CONFIG^0,w,c
  4249   0015D2  6ED9               	movwf	fsr2l,c
  4250   0015D4  6ADA               	clrf	fsr2h,c
  4251   0015D6  30DF               	rrcf	223,w,c
  4252   0015D8  32E8               	rrcf	wreg,f,c
  4253   0015DA  32E8               	rrcf	wreg,f,c
  4254   0015DC  0B07               	andlw	7
  4255   0015DE  6E24               	movwf	??i2_GPIO_PIN_WRITE_LOGIC^0,c
  4256   0015E0  0E01               	movlw	1
  4257   0015E2  6E25               	movwf	(??i2_GPIO_PIN_WRITE_LOGIC+1)^0,c
  4258   0015E4  2A24               	incf	??i2_GPIO_PIN_WRITE_LOGIC^0,f,c
  4259   0015E6  EFF7  F00A         	goto	i2u391_44
  4260   0015EA                     i2u391_45:
  4261   0015EA  90D8               	bcf	status,0,c
  4262   0015EC  3625               	rlcf	(??i2_GPIO_PIN_WRITE_LOGIC+1)^0,f,c
  4263   0015EE                     i2u391_44:
  4264   0015EE  2E24               	decfsz	??i2_GPIO_PIN_WRITE_LOGIC^0,f,c
  4265   0015F0  EFF5  F00A         	goto	i2u391_45
  4266   0015F4  5025               	movf	(??i2_GPIO_PIN_WRITE_LOGIC+1)^0,w,c
  4267   0015F6  0AFF               	xorlw	255
  4268   0015F8  6E26               	movwf	(??i2_GPIO_PIN_WRITE_LOGIC+2)^0,c
  4269   0015FA  5022               	movf	i2GPIO_PIN_WRITE_LOGIC@_PIN_CONFIG^0,w,c
  4270   0015FC  6ED9               	movwf	fsr2l,c
  4271   0015FE  6ADA               	clrf	fsr2h,c
  4272   001600  50DF               	movf	223,w,c
  4273   001602  0B07               	andlw	7
  4274   001604  0D02               	mullw	2
  4275   001606  50F3               	movf	243,w,c
  4276   001608  0F3D               	addlw	low _LAT_REG
  4277   00160A  6ED9               	movwf	fsr2l,c
  4278   00160C  6ADA               	clrf	fsr2h,c
  4279   00160E  CFDE F027          	movff	postinc2,??i2_GPIO_PIN_WRITE_LOGIC+3
  4280   001612  CFDD F028          	movff	postdec2,??i2_GPIO_PIN_WRITE_LOGIC+4
  4281   001616  C027  FFD9         	movff	??i2_GPIO_PIN_WRITE_LOGIC+3,fsr2l
  4282   00161A  C028  FFDA         	movff	??i2_GPIO_PIN_WRITE_LOGIC+4,fsr2h
  4283   00161E  5026               	movf	(??i2_GPIO_PIN_WRITE_LOGIC+2)^0,w,c
  4284   001620  16DF               	andwf	indf2,f,c
  4285   001622                     i2l4228:
  4286                           
  4287                           ;MCAL/GPIO/HAL_GPIO.c: 93:                 Retval = E_OK;
  4288   001622  0E01               	movlw	1
  4289   001624  6E29               	movwf	i2GPIO_PIN_WRITE_LOGIC@Retval^0,c
  4290                           
  4291                           ;MCAL/GPIO/HAL_GPIO.c: 94:                 break;
  4292   001626  EF52  F00B         	goto	i2l4240
  4293   00162A                     i2l4230:
  4294                           
  4295                           ;MCAL/GPIO/HAL_GPIO.c: 96:                 (*LAT_REG[_PIN_CONFIG->PORT] |= (((uint8)0x01
      +                          ) << _PIN_CONFIG->PIN));
  4296   00162A  5022               	movf	i2GPIO_PIN_WRITE_LOGIC@_PIN_CONFIG^0,w,c
  4297   00162C  6ED9               	movwf	fsr2l,c
  4298   00162E  6ADA               	clrf	fsr2h,c
  4299   001630  30DF               	rrcf	223,w,c
  4300   001632  32E8               	rrcf	wreg,f,c
  4301   001634  32E8               	rrcf	wreg,f,c
  4302   001636  0B07               	andlw	7
  4303   001638  6E24               	movwf	??i2_GPIO_PIN_WRITE_LOGIC^0,c
  4304   00163A  0E01               	movlw	1
  4305   00163C  6E25               	movwf	(??i2_GPIO_PIN_WRITE_LOGIC+1)^0,c
  4306   00163E  2A24               	incf	??i2_GPIO_PIN_WRITE_LOGIC^0,f,c
  4307   001640  EF24  F00B         	goto	i2u392_44
  4308   001644                     i2u392_45:
  4309   001644  90D8               	bcf	status,0,c
  4310   001646  3625               	rlcf	(??i2_GPIO_PIN_WRITE_LOGIC+1)^0,f,c
  4311   001648                     i2u392_44:
  4312   001648  2E24               	decfsz	??i2_GPIO_PIN_WRITE_LOGIC^0,f,c
  4313   00164A  EF22  F00B         	goto	i2u392_45
  4314   00164E  5022               	movf	i2GPIO_PIN_WRITE_LOGIC@_PIN_CONFIG^0,w,c
  4315   001650  6ED9               	movwf	fsr2l,c
  4316   001652  6ADA               	clrf	fsr2h,c
  4317   001654  50DF               	movf	223,w,c
  4318   001656  0B07               	andlw	7
  4319   001658  0D02               	mullw	2
  4320   00165A  50F3               	movf	243,w,c
  4321   00165C  0F3D               	addlw	low _LAT_REG
  4322   00165E  6ED9               	movwf	fsr2l,c
  4323   001660  6ADA               	clrf	fsr2h,c
  4324   001662  CFDE F026          	movff	postinc2,??i2_GPIO_PIN_WRITE_LOGIC+2
  4325   001666  CFDD F027          	movff	postdec2,??i2_GPIO_PIN_WRITE_LOGIC+3
  4326   00166A  C026  FFD9         	movff	??i2_GPIO_PIN_WRITE_LOGIC+2,fsr2l
  4327   00166E  C027  FFDA         	movff	??i2_GPIO_PIN_WRITE_LOGIC+3,fsr2h
  4328   001672  5025               	movf	(??i2_GPIO_PIN_WRITE_LOGIC+1)^0,w,c
  4329   001674  12DF               	iorwf	indf2,f,c
  4330   001676  EF11  F00B         	goto	i2l4228
  4331   00167A                     i2l4238:
  4332   00167A  5023               	movf	i2GPIO_PIN_WRITE_LOGIC@LOGIC^0,w,c
  4333   00167C  6E24               	movwf	??i2_GPIO_PIN_WRITE_LOGIC^0,c
  4334   00167E  6A25               	clrf	(??i2_GPIO_PIN_WRITE_LOGIC+1)^0,c
  4335                           
  4336                           ; Switch on 2 bytes has been partitioned into a top level switch of size 1, and 1 sub-sw
      +                          itches
  4337                           ; Switch size 1, requested type "simple"
  4338                           ; Number of cases is 1, Range of values is 0 to 0
  4339                           ; switch strategies available:
  4340                           ; Name         Instructions Cycles
  4341                           ; simple_byte            4     3 (average)
  4342                           ;	Chosen strategy is simple_byte
  4343   001680  5025               	movf	(??i2_GPIO_PIN_WRITE_LOGIC+1)^0,w,c
  4344   001682  0A00               	xorlw	0	; case 0
  4345   001684  B4D8               	btfsc	status,2,c
  4346   001686  EF47  F00B         	goto	i2l5124
  4347   00168A  EFE4  F00A         	goto	i2l4224
  4348   00168E                     i2l5124:
  4349                           
  4350                           ; Switch size 1, requested type "simple"
  4351                           ; Number of cases is 2, Range of values is 0 to 1
  4352                           ; switch strategies available:
  4353                           ; Name         Instructions Cycles
  4354                           ; simple_byte            7     4 (average)
  4355                           ;	Chosen strategy is simple_byte
  4356   00168E  5024               	movf	??i2_GPIO_PIN_WRITE_LOGIC^0,w,c
  4357   001690  0A00               	xorlw	0	; case 0
  4358   001692  B4D8               	btfsc	status,2,c
  4359   001694  EFE8  F00A         	goto	i2l4226
  4360   001698  0A01               	xorlw	1	; case 1
  4361   00169A  B4D8               	btfsc	status,2,c
  4362   00169C  EF15  F00B         	goto	i2l4230
  4363   0016A0  EFE4  F00A         	goto	i2l4224
  4364   0016A4                     i2l4240:
  4365                           
  4366                           ;MCAL/GPIO/HAL_GPIO.c: 104:     return Retval;
  4367   0016A4  5029               	movf	i2GPIO_PIN_WRITE_LOGIC@Retval^0,w,c
  4368   0016A6  0012               	return		;funcret
  4369   0016A8                     __end_ofi2_GPIO_PIN_WRITE_LOGIC:
  4370                           	callstack 0
  4371                           
  4372 ;; *************** function _INT2_ISR *****************
  4373 ;; Defined at:
  4374 ;;		line 110 in file "MCAL/Interrupt/MCAL_external_interrupt.c"
  4375 ;; Parameters:    Size  Location     Type
  4376 ;;		None
  4377 ;; Auto vars:     Size  Location     Type
  4378 ;;		None
  4379 ;; Return value:  Size  Location     Type
  4380 ;;                  1    wreg      void 
  4381 ;; Registers used:
  4382 ;;		None
  4383 ;; Tracked objects:
  4384 ;;		On entry : 0/0
  4385 ;;		On exit  : 0/0
  4386 ;;		Unchanged: 0/0
  4387 ;; Data sizes:     COMRAM   BANK0   BANK1   BANK2   BANK3   BANK4   BANK5   BANK6   BANK7   BANK8   BANK9  BANK10  BANK1
      +1  BANK12  BANK13  BANK14  BANK15
  4388 ;;      Params:         0       0       0       0       0       0       0       0       0       0       0       0       
      +0       0       0       0       0
  4389 ;;      Locals:         0       0       0       0       0       0       0       0       0       0       0       0       
      +0       0       0       0       0
  4390 ;;      Temps:          0       0       0       0       0       0       0       0       0       0       0       0       
      +0       0       0       0       0
  4391 ;;      Totals:         0       0       0       0       0       0       0       0       0       0       0       0       
      +0       0       0       0       0
  4392 ;;Total ram usage:        0 bytes
  4393 ;; Hardware stack levels used: 1
  4394 ;; This function calls:
  4395 ;;		Nothing
  4396 ;; This function is called by:
  4397 ;;		_interrupt_manager
  4398 ;; This function uses a non-reentrant model
  4399 ;;
  4400                           
  4401                           	psect	text31
  4402   001DDC                     __ptext31:
  4403                           	callstack 0
  4404   001DDC                     _INT2_ISR:
  4405                           	callstack 23
  4406   001DDC                     
  4407                           ;MCAL/Interrupt/MCAL_external_interrupt.c: 114:     (INTCON3bits.INT2IF = 0);
  4408   001DDC  92F0               	bcf	240,1,c	;volatile
  4409   001DDE  0012               	return		;funcret
  4410   001DE0                     __end_of_INT2_ISR:
  4411                           	callstack 0
  4412                           
  4413 ;; *************** function _INT1_ISR *****************
  4414 ;; Defined at:
  4415 ;;		line 99 in file "MCAL/Interrupt/MCAL_external_interrupt.c"
  4416 ;; Parameters:    Size  Location     Type
  4417 ;;		None
  4418 ;; Auto vars:     Size  Location     Type
  4419 ;;		None
  4420 ;; Return value:  Size  Location     Type
  4421 ;;                  1    wreg      void 
  4422 ;; Registers used:
  4423 ;;		None
  4424 ;; Tracked objects:
  4425 ;;		On entry : 0/0
  4426 ;;		On exit  : 0/0
  4427 ;;		Unchanged: 0/0
  4428 ;; Data sizes:     COMRAM   BANK0   BANK1   BANK2   BANK3   BANK4   BANK5   BANK6   BANK7   BANK8   BANK9  BANK10  BANK1
      +1  BANK12  BANK13  BANK14  BANK15
  4429 ;;      Params:         0       0       0       0       0       0       0       0       0       0       0       0       
      +0       0       0       0       0
  4430 ;;      Locals:         0       0       0       0       0       0       0       0       0       0       0       0       
      +0       0       0       0       0
  4431 ;;      Temps:          0       0       0       0       0       0       0       0       0       0       0       0       
      +0       0       0       0       0
  4432 ;;      Totals:         0       0       0       0       0       0       0       0       0       0       0       0       
      +0       0       0       0       0
  4433 ;;Total ram usage:        0 bytes
  4434 ;; Hardware stack levels used: 1
  4435 ;; This function calls:
  4436 ;;		Nothing
  4437 ;; This function is called by:
  4438 ;;		_interrupt_manager
  4439 ;; This function uses a non-reentrant model
  4440 ;;
  4441                           
  4442                           	psect	text32
  4443   001DE0                     __ptext32:
  4444                           	callstack 0
  4445   001DE0                     _INT1_ISR:
  4446                           	callstack 23
  4447   001DE0                     
  4448                           ;MCAL/Interrupt/MCAL_external_interrupt.c: 103:     (INTCON3bits.INT1IF = 0);
  4449   001DE0  90F0               	bcf	240,0,c	;volatile
  4450   001DE2  0012               	return		;funcret
  4451   001DE4                     __end_of_INT1_ISR:
  4452                           	callstack 0
  4453                           
  4454 ;; *************** function _INT0_ISR *****************
  4455 ;; Defined at:
  4456 ;;		line 88 in file "MCAL/Interrupt/MCAL_external_interrupt.c"
  4457 ;; Parameters:    Size  Location     Type
  4458 ;;		None
  4459 ;; Auto vars:     Size  Location     Type
  4460 ;;		None
  4461 ;; Return value:  Size  Location     Type
  4462 ;;                  1    wreg      void 
  4463 ;; Registers used:
  4464 ;;		None
  4465 ;; Tracked objects:
  4466 ;;		On entry : 0/0
  4467 ;;		On exit  : 0/0
  4468 ;;		Unchanged: 0/0
  4469 ;; Data sizes:     COMRAM   BANK0   BANK1   BANK2   BANK3   BANK4   BANK5   BANK6   BANK7   BANK8   BANK9  BANK10  BANK1
      +1  BANK12  BANK13  BANK14  BANK15
  4470 ;;      Params:         0       0       0       0       0       0       0       0       0       0       0       0       
      +0       0       0       0       0
  4471 ;;      Locals:         0       0       0       0       0       0       0       0       0       0       0       0       
      +0       0       0       0       0
  4472 ;;      Temps:          0       0       0       0       0       0       0       0       0       0       0       0       
      +0       0       0       0       0
  4473 ;;      Totals:         0       0       0       0       0       0       0       0       0       0       0       0       
      +0       0       0       0       0
  4474 ;;Total ram usage:        0 bytes
  4475 ;; Hardware stack levels used: 1
  4476 ;; This function calls:
  4477 ;;		Nothing
  4478 ;; This function is called by:
  4479 ;;		_interrupt_manager
  4480 ;; This function uses a non-reentrant model
  4481 ;;
  4482                           
  4483                           	psect	text33
  4484   001DE4                     __ptext33:
  4485                           	callstack 0
  4486   001DE4                     _INT0_ISR:
  4487                           	callstack 23
  4488   001DE4                     
  4489                           ;MCAL/Interrupt/MCAL_external_interrupt.c: 92:     (INTCONbits.INT0IF = 0);
  4490   001DE4  92F2               	bcf	242,1,c	;volatile
  4491   001DE6  0012               	return		;funcret
  4492   001DE8                     __end_of_INT0_ISR:
  4493                           	callstack 0
  4494                           
  4495                           	psect	rparam
  4496   000000                     
  4497                           	psect	temp
  4498   00004C                     btemp:
  4499                           	callstack 0
  4500   00004C                     	ds	1
  4501   000000                     int$flags	set	btemp
  4502   000000                     wtemp8	set	btemp+1
  4503   000000                     ttemp5	set	btemp+1
  4504   000000                     ttemp6	set	btemp+4
  4505   000000                     ttemp7	set	btemp+8
  4506                           
  4507                           	psect	config
  4508                           
  4509                           ; Padding undefined space
  4510   300000                     	org	3145728
  4511   300000  FF                 	db	255
  4512                           
  4513                           ;Config register CONFIG1H @ 0x300001
  4514                           ;	Oscillator Selection bits
  4515                           ;	FOSC = HS, HS oscillator
  4516                           ;	Fail-Safe Clock Monitor Enable bit
  4517                           ;	FCMEN = OFF, Fail-Safe Clock Monitor disabled
  4518                           ;	Internal/External Oscillator Switchover bit
  4519                           ;	IESO = OFF, Oscillator Switchover mode disabled
  4520   300001                     	org	3145729
  4521   300001  02                 	db	2
  4522                           
  4523                           ;Config register CONFIG2L @ 0x300002
  4524                           ;	Power-up Timer Enable bit
  4525                           ;	PWRTEN = OFF, PWRT disabled
  4526                           ;	Brown-out Reset Enable bits
  4527                           ;	BOREN = OFF, Brown-out Reset disabled in hardware and software
  4528                           ;	Brown Out Reset Voltage bits
  4529                           ;	BORV = 18, VBOR set to 1.8 V nominal
  4530   300002                     	org	3145730
  4531   300002  19                 	db	25
  4532                           
  4533                           ;Config register CONFIG2H @ 0x300003
  4534                           ;	Watchdog Timer Enable bit
  4535                           ;	WDTEN = OFF, WDT is controlled by SWDTEN bit of the WDTCON register
  4536                           ;	Watchdog Timer Postscale Select bits
  4537                           ;	WDTPS = 32768, 1:32768
  4538   300003                     	org	3145731
  4539   300003  1E                 	db	30
  4540                           
  4541                           ; Padding undefined space
  4542   300004                     	org	3145732
  4543   300004  FF                 	db	255
  4544                           
  4545                           ;Config register CONFIG3H @ 0x300005
  4546                           ;	CCP2 MUX bit
  4547                           ;	CCP2MX = PORTC, CCP2 input/output is multiplexed with RC1
  4548                           ;	PORTB A/D Enable bit
  4549                           ;	PBADEN = OFF, PORTB<4:0> pins are configured as digital I/O on Reset
  4550                           ;	Low-Power Timer1 Oscillator Enable bit
  4551                           ;	LPT1OSC = OFF, Timer1 configured for higher power operation
  4552                           ;	HFINTOSC Fast Start-up
  4553                           ;	HFOFST = ON, HFINTOSC starts clocking the CPU without waiting for the oscillator to st
      +                          ablize.
  4554                           ;	MCLR Pin Enable bit
  4555                           ;	MCLRE = ON, MCLR pin enabled; RE3 input pin disabled
  4556   300005                     	org	3145733
  4557   300005  89                 	db	137
  4558                           
  4559                           ;Config register CONFIG4L @ 0x300006
  4560                           ;	Stack Full/Underflow Reset Enable bit
  4561                           ;	STVREN = ON, Stack full/underflow will cause Reset
  4562                           ;	Single-Supply ICSP Enable bit
  4563                           ;	LVP = OFF, Single-Supply ICSP disabled
  4564                           ;	Extended Instruction Set Enable bit
  4565                           ;	XINST = OFF, Instruction set extension and Indexed Addressing mode disabled (Legacy mo
      +                          de)
  4566                           ;	Background Debugger Enable bit
  4567                           ;	DEBUG = 0x1, unprogrammed default
  4568   300006                     	org	3145734
  4569   300006  81                 	db	129
  4570                           
  4571                           ; Padding undefined space
  4572   300007                     	org	3145735
  4573   300007  FF                 	db	255
  4574                           
  4575                           ;Config register CONFIG5L @ 0x300008
  4576                           ;	Code Protection Block 0
  4577                           ;	CP0 = OFF, Block 0 (000800-003FFFh) not code-protected
  4578                           ;	Code Protection Block 1
  4579                           ;	CP1 = OFF, Block 1 (004000-007FFFh) not code-protected
  4580                           ;	Code Protection Block 2
  4581                           ;	CP2 = OFF, Block 2 (008000-00BFFFh) not code-protected
  4582                           ;	Code Protection Block 3
  4583                           ;	CP3 = OFF, Block 3 (00C000-00FFFFh) not code-protected
  4584   300008                     	org	3145736
  4585   300008  0F                 	db	15
  4586                           
  4587                           ;Config register CONFIG5H @ 0x300009
  4588                           ;	Boot Block Code Protection bit
  4589                           ;	CPB = OFF, Boot block (000000-0007FFh) not code-protected
  4590                           ;	Data EEPROM Code Protection bit
  4591                           ;	CPD = OFF, Data EEPROM not code-protected
  4592   300009                     	org	3145737
  4593   300009  C0                 	db	192
  4594                           
  4595                           ;Config register CONFIG6L @ 0x30000A
  4596                           ;	Write Protection Block 0
  4597                           ;	WRT0 = OFF, Block 0 (000800-003FFFh) not write-protected
  4598                           ;	Write Protection Block 1
  4599                           ;	WRT1 = OFF, Block 1 (004000-007FFFh) not write-protected
  4600                           ;	Write Protection Block 2
  4601                           ;	WRT2 = OFF, Block 2 (008000-00BFFFh) not write-protected
  4602                           ;	Write Protection Block 3
  4603                           ;	WRT3 = OFF, Block 3 (00C000h-00FFFFh) not write-protected
  4604   30000A                     	org	3145738
  4605   30000A  0F                 	db	15
  4606                           
  4607                           ;Config register CONFIG6H @ 0x30000B
  4608                           ;	Configuration Register Write Protection bit
  4609                           ;	WRTC = OFF, Configuration registers (300000-3000FFh) not write-protected
  4610                           ;	Boot Block Write Protection bit
  4611                           ;	WRTB = OFF, Boot Block (000000-0007FFh) not write-protected
  4612                           ;	Data EEPROM Write Protection bit
  4613                           ;	WRTD = OFF, Data EEPROM not write-protected
  4614   30000B                     	org	3145739
  4615   30000B  E0                 	db	224
  4616                           
  4617                           ;Config register CONFIG7L @ 0x30000C
  4618                           ;	Table Read Protection Block 0
  4619                           ;	EBTR0 = OFF, Block 0 (000800-003FFFh) not protected from table reads executed in other
      +                           blocks
  4620                           ;	Table Read Protection Block 1
  4621                           ;	EBTR1 = OFF, Block 1 (004000-007FFFh) not protected from table reads executed in other
      +                           blocks
  4622                           ;	Table Read Protection Block 2
  4623                           ;	EBTR2 = OFF, Block 2 (008000-00BFFFh) not protected from table reads executed in other
      +                           blocks
  4624                           ;	Table Read Protection Block 3
  4625                           ;	EBTR3 = OFF, Block 3 (00C000-00FFFFh) not protected from table reads executed in other
      +                           blocks
  4626   30000C                     	org	3145740
  4627   30000C  0F                 	db	15
  4628                           
  4629                           ;Config register CONFIG7H @ 0x30000D
  4630                           ;	Boot Block Table Read Protection bit
  4631                           ;	EBTRB = OFF, Boot Block (000000-0007FFh) not protected from table reads executed in ot
      +                          her blocks
  4632   30000D                     	org	3145741
  4633   30000D  40                 	db	64
  4634                           tosu	equ	0xFFF
  4635                           tosh	equ	0xFFE
  4636                           tosl	equ	0xFFD
  4637                           stkptr	equ	0xFFC
  4638                           pclatu	equ	0xFFB
  4639                           pclath	equ	0xFFA
  4640                           pcl	equ	0xFF9
  4641                           tblptru	equ	0xFF8
  4642                           tblptrh	equ	0xFF7
  4643                           tblptrl	equ	0xFF6
  4644                           tablat	equ	0xFF5
  4645                           prodh	equ	0xFF4
  4646                           prodl	equ	0xFF3
  4647                           indf0	equ	0xFEF
  4648                           postinc0	equ	0xFEE
  4649                           postdec0	equ	0xFED
  4650                           preinc0	equ	0xFEC
  4651                           plusw0	equ	0xFEB
  4652                           fsr0h	equ	0xFEA
  4653                           fsr0l	equ	0xFE9
  4654                           wreg	equ	0xFE8
  4655                           indf1	equ	0xFE7
  4656                           postinc1	equ	0xFE6
  4657                           postdec1	equ	0xFE5
  4658                           preinc1	equ	0xFE4
  4659                           plusw1	equ	0xFE3
  4660                           fsr1h	equ	0xFE2
  4661                           fsr1l	equ	0xFE1
  4662                           bsr	equ	0xFE0
  4663                           indf2	equ	0xFDF
  4664                           postinc2	equ	0xFDE
  4665                           postdec2	equ	0xFDD
  4666                           preinc2	equ	0xFDC
  4667                           plusw2	equ	0xFDB
  4668                           fsr2h	equ	0xFDA
  4669                           fsr2l	equ	0xFD9
  4670                           status	equ	0xFD8

Data Sizes:
    Strings     3
    Constant    16
    Data        74
    BSS         33
    Persistent  1
    Stack       0

Auto Spaces:
    Space          Size  Autos    Used
    COMRAM           94     27      75
    BANK0           160     15      75
    BANK1           256      0       0
    BANK2           256      0       0
    BANK3           256      0       0
    BANK4           256      0       0
    BANK5           256      0       0
    BANK6           256      0       0
    BANK7           256      0       0
    BANK8           256      0       0
    BANK9           256      0       0
    BANK10          256      0       0
    BANK11          256      0       0
    BANK12          256      0       0
    BANK13          256      0       0
    BANK14          256      0       0
    BANK15           96      0       0

Pointer List with Targets:

    EXTERNAL_INTERRUPT_RBX_INIT@RBX	PTR const struct . size(1) Largest target is 6
		 -> RB4__(BANK0[6]), RB5__(BANK0[6]), RB6__(BANK0[6]), RB7__(BANK0[6]), 

    EXTERNAL_INTERRUPT_RBX_INIT@RBX$ext_interrupt_handler_high	PTR FTN()void  size(2) Largest target is 1
		 -> RB4_ISR_HIGH_TT(), RB5_ISR_HIGH_TT(), RB6_ISR_HIGH_TT(), RB7_ISR_HIGH_TT(), 

    EXTERNAL_INTERRUPT_RBX_INIT@RBX$ext_interrupt_handler_low	PTR FTN()void  size(2) Largest target is 1
		 -> RB4_ISR_LOW_TT(), RB5_ISR_LOW_TT(), RB6_ISR_LOW_TT(), RB7_ISR_LOW_TT(), 

    f$.$buffer	PTR unsigned char  size(2) Largest target is 0

    f$.$source	PTR const unsigned char  size(2) Largest target is 0

    GPIO_PIN_DIRECTION_INITIALIZE@_PIN_CONFIG	PTR const struct . size(1) Largest target is 10
		 -> lcd1(BANK0[6]), lcd1$DATA_PINS(BANK0[4]), lcd2(BANK0[10]), lcd2$DATA_PINS(BANK0[8]), 
		 -> LED_INITIALIZE@PIN_OBJ(BANK0[1]), RB4__(BANK0[6]), RB5__(BANK0[6]), RB6__(BANK0[6]), 
		 -> RB7__(BANK0[6]), RELAY_INITIALIZE@pin(COMRAM[1]), 

    GPIO_PIN_INITIALIZE@_PIN_CONFIG	PTR const struct . size(1) Largest target is 10
		 -> lcd1(BANK0[6]), lcd1$DATA_PINS(BANK0[4]), lcd2(BANK0[10]), lcd2$DATA_PINS(BANK0[8]), 
		 -> LED_INITIALIZE@PIN_OBJ(BANK0[1]), RELAY_INITIALIZE@pin(COMRAM[1]), 

    GPIO_PIN_WRITE_LOGIC@_PIN_CONFIG	PTR const struct . size(1) Largest target is 10
		 -> lcd1(BANK0[6]), lcd1$DATA_PINS(BANK0[4]), lcd2(BANK0[10]), lcd2$DATA_PINS(BANK0[8]), 
		 -> LED_INITIALIZE@PIN_OBJ(BANK0[1]), LED_Turn_OFF@PIN_OBJ(COMRAM[1]), LED_Turn_ON@PIN_OBJ(COMRAM[1]), RELAY_INITIALIZE@pin(COMRAM[1]), 
		 -> RELAY_TURN_OFF@pin(COMRAM[1]), RELAY_TURN_ON@pin(COMRAM[1]), 

    int0_interrupt_handler	PTR FTN()void  size(2) Largest target is 1
		 -> NULL(), 

    int1_interrupt_handler	PTR FTN()void  size(2) Largest target is 1
		 -> NULL(), 

    int2_interrupt_handler	PTR FTN()void  size(2) Largest target is 1
		 -> NULL(), 

    interrupt_intx_clear_flag@INTX$ext_interrupt_handler	PTR FTN()void  size(2) Largest target is 0

    interrupt_intx_disable@INTX$ext_interrupt_handler	PTR FTN()void  size(2) Largest target is 0

    interrupt_intx_edge_init@INTX$ext_interrupt_handler	PTR FTN()void  size(2) Largest target is 0

    interrupt_intx_enable@INTX$ext_interrupt_handler	PTR FTN()void  size(2) Largest target is 0

    interrupt_intx_pin_init@INTX$ext_interrupt_handler	PTR FTN()void  size(2) Largest target is 0

    interrupt_rbx_pin_init@RBX$ext_interrupt_handler_high	PTR FTN()void  size(2) Largest target is 1
		 -> RB4_ISR_HIGH_TT(), RB5_ISR_HIGH_TT(), RB6_ISR_HIGH_TT(), RB7_ISR_HIGH_TT(), 

    interrupt_rbx_pin_init@RBX$ext_interrupt_handler_low	PTR FTN()void  size(2) Largest target is 1
		 -> RB4_ISR_LOW_TT(), RB5_ISR_LOW_TT(), RB6_ISR_LOW_TT(), RB7_ISR_LOW_TT(), 

    LAT_REG	PTR volatile unsigned char [5] size(2) Largest target is 1
		 -> LATA(BITBIGSFRlhl[1]), LATB(BITBIGSFRlhh[1]), LATC(BITBIGSFRlhh[1]), LATD(BITBIGSFRlhh[1]), 
		 -> LATE(BITBIGSFRlhh[1]), 

    LCD_4BIT_INITIALIZE@lcd	PTR const struct . size(1) Largest target is 6
		 -> lcd1(BANK0[6]), 

    LCD_4BIT_SEND_COMMAND@lcd	PTR const struct . size(1) Largest target is 6
		 -> lcd1(BANK0[6]), 

    lcd_4bit_send_enable_signal@lcd	PTR const struct . size(1) Largest target is 6
		 -> lcd1(BANK0[6]), 

    LCD_8BIT_INITIALIZE@lcd	PTR const struct . size(1) Largest target is 10
		 -> lcd2(BANK0[10]), 

    LCD_8BIT_SEND_COMMAND@lcd	PTR const struct . size(1) Largest target is 10
		 -> lcd2(BANK0[10]), 

    lcd_8bit_send_enable_signal@lcd	PTR const struct . size(1) Largest target is 10
		 -> lcd2(BANK0[10]), 

    lcd_send_4bits@lcd	PTR const struct . size(1) Largest target is 6
		 -> lcd1(BANK0[6]), 

    LED_INITIALIZE@led	PTR const struct . size(1) Largest target is 1
		 -> led1(COMRAM[1]), led2(COMRAM[1]), led3(COMRAM[1]), led4(COMRAM[1]), 

    LED_Turn_OFF@led	PTR const struct . size(1) Largest target is 1
		 -> led1(COMRAM[1]), led2(COMRAM[1]), led3(COMRAM[1]), led4(COMRAM[1]), 

    LED_Turn_ON@led	PTR const struct . size(1) Largest target is 1
		 -> led1(COMRAM[1]), led2(COMRAM[1]), led3(COMRAM[1]), led4(COMRAM[1]), 

    PORT_REG	PTR volatile unsigned char [5] size(2) Largest target is 1
		 -> PORTA(BITBIGSFRlll[1]), PORTB(BITBIGSFRlhl[1]), PORTC(BITBIGSFRlhl[1]), PORTD(BITBIGSFRlhl[1]), 
		 -> PORTE(BITBIGSFRlhl[1]), 

    RB4__$ext_interrupt_handler_high	PTR FTN()void  size(2) Largest target is 1
		 -> RB4_ISR_HIGH_TT(), RB5_ISR_HIGH_TT(), RB6_ISR_HIGH_TT(), RB7_ISR_HIGH_TT(), 

    RB4__$ext_interrupt_handler_low	PTR FTN()void  size(2) Largest target is 1
		 -> RB4_ISR_LOW_TT(), RB5_ISR_LOW_TT(), RB6_ISR_LOW_TT(), RB7_ISR_LOW_TT(), 

    RB4_interrupt_handler_HIGH	PTR FTN()void  size(2) Largest target is 1
		 -> RB4_ISR_HIGH_TT(), RB5_ISR_HIGH_TT(), RB6_ISR_HIGH_TT(), RB7_ISR_HIGH_TT(), 
		 -> NULL(), 

    RB4_interrupt_handler_LOW	PTR FTN()void  size(2) Largest target is 1
		 -> RB4_ISR_LOW_TT(), RB5_ISR_LOW_TT(), RB6_ISR_LOW_TT(), RB7_ISR_LOW_TT(), 
		 -> NULL(), 

    RB5__$ext_interrupt_handler_high	PTR FTN()void  size(2) Largest target is 1
		 -> RB4_ISR_HIGH_TT(), RB5_ISR_HIGH_TT(), RB6_ISR_HIGH_TT(), RB7_ISR_HIGH_TT(), 

    RB5__$ext_interrupt_handler_low	PTR FTN()void  size(2) Largest target is 1
		 -> RB4_ISR_LOW_TT(), RB5_ISR_LOW_TT(), RB6_ISR_LOW_TT(), RB7_ISR_LOW_TT(), 

    RB5_interrupt_handler_HIGH	PTR FTN()void  size(2) Largest target is 1
		 -> RB4_ISR_HIGH_TT(), RB5_ISR_HIGH_TT(), RB6_ISR_HIGH_TT(), RB7_ISR_HIGH_TT(), 
		 -> NULL(), 

    RB5_interrupt_handler_LOW	PTR FTN()void  size(2) Largest target is 1
		 -> RB4_ISR_LOW_TT(), RB5_ISR_LOW_TT(), RB6_ISR_LOW_TT(), RB7_ISR_LOW_TT(), 
		 -> NULL(), 

    RB6__$ext_interrupt_handler_high	PTR FTN()void  size(2) Largest target is 1
		 -> RB4_ISR_HIGH_TT(), RB5_ISR_HIGH_TT(), RB6_ISR_HIGH_TT(), RB7_ISR_HIGH_TT(), 

    RB6__$ext_interrupt_handler_low	PTR FTN()void  size(2) Largest target is 1
		 -> RB4_ISR_LOW_TT(), RB5_ISR_LOW_TT(), RB6_ISR_LOW_TT(), RB7_ISR_LOW_TT(), 

    RB6_interrupt_handler_HIGH	PTR FTN()void  size(2) Largest target is 1
		 -> RB4_ISR_HIGH_TT(), RB5_ISR_HIGH_TT(), RB6_ISR_HIGH_TT(), RB7_ISR_HIGH_TT(), 
		 -> NULL(), 

    RB6_interrupt_handler_LOW	PTR FTN()void  size(2) Largest target is 1
		 -> RB4_ISR_LOW_TT(), RB5_ISR_LOW_TT(), RB6_ISR_LOW_TT(), RB7_ISR_LOW_TT(), 
		 -> NULL(), 

    RB7__$ext_interrupt_handler_high	PTR FTN()void  size(2) Largest target is 1
		 -> RB4_ISR_HIGH_TT(), RB5_ISR_HIGH_TT(), RB6_ISR_HIGH_TT(), RB7_ISR_HIGH_TT(), 

    RB7__$ext_interrupt_handler_low	PTR FTN()void  size(2) Largest target is 1
		 -> RB4_ISR_LOW_TT(), RB5_ISR_LOW_TT(), RB6_ISR_LOW_TT(), RB7_ISR_LOW_TT(), 

    RB7_interrupt_handler_HIGH	PTR FTN()void  size(2) Largest target is 1
		 -> RB4_ISR_HIGH_TT(), RB5_ISR_HIGH_TT(), RB6_ISR_HIGH_TT(), RB7_ISR_HIGH_TT(), 
		 -> NULL(), 

    RB7_interrupt_handler_LOW	PTR FTN()void  size(2) Largest target is 1
		 -> RB4_ISR_LOW_TT(), RB5_ISR_LOW_TT(), RB6_ISR_LOW_TT(), RB7_ISR_LOW_TT(), 
		 -> NULL(), 

    S1002$ext_interrupt_handler_high	PTR FTN()void  size(2) Largest target is 1
		 -> RB4_ISR_HIGH_TT(), RB5_ISR_HIGH_TT(), RB6_ISR_HIGH_TT(), RB7_ISR_HIGH_TT(), 

    S1002$ext_interrupt_handler_low	PTR FTN()void  size(2) Largest target is 1
		 -> RB4_ISR_LOW_TT(), RB5_ISR_LOW_TT(), RB6_ISR_LOW_TT(), RB7_ISR_LOW_TT(), 

    S2067$buffer	PTR unsigned char  size(2) Largest target is 0

    S2067$source	PTR const unsigned char  size(2) Largest target is 0

    S869$ext_interrupt_handler	PTR FTN()void  size(2) Largest target is 0

    set_interrupt_intx_to_handle@INTX$ext_interrupt_handler	PTR FTN()void  size(2) Largest target is 0

    sp__memset	PTR void  size(2) Largest target is 0

    TRIS_REG	PTR volatile unsigned char [5] size(2) Largest target is 1
		 -> TRISA(BITBIGSFRlll[1]), TRISB(BITBIGSFRhll[1]), TRISC(BITBIGSFRhll[1]), TRISD(BITBIGSFRhll[1]), 
		 -> TRISE(BITBIGSFRhll[1]), 

    vfprintf$0	PTR struct _IO_FILE size(1) Largest target is 12
		 -> sprintf@f(COMRAM[12]), 

    vfprintf$1	PTR const unsigned char  size(1) Largest target is 3
		 -> STR_1(CODE[3]), STR_2(CODE[3]), STR_3(CODE[3]), 

    vfprintf$2	PTR PTR void  size(1) Largest target is 1
		 -> sprintf@ap(COMRAM[1]), 


Critical Paths under _main in COMRAM

    _main->_EXTERNAL_INTERRUPT_RBX_INIT
    _EXTERNAL_INTERRUPT_RBX_INIT->_GPIO_PIN_DIRECTION_INITIALIZE
    _LCD_8BIT_INITIALIZE->_GPIO_PIN_WRITE_LOGIC
    _LCD_8BIT_SEND_COMMAND->_GPIO_PIN_WRITE_LOGIC
    _lcd_8bit_send_enable_signal->_GPIO_PIN_WRITE_LOGIC
    _LCD_4BIT_SEND_COMMAND->_GPIO_PIN_WRITE_LOGIC
    _lcd_send_4bits->_GPIO_PIN_WRITE_LOGIC
    _lcd_4bit_send_enable_signal->_GPIO_PIN_WRITE_LOGIC
    _GPIO_PIN_INITIALIZE->_GPIO_PIN_WRITE_LOGIC

Critical Paths under _interrupt_manager in COMRAM

    _interrupt_manager->_RB4_ISR
    _interrupt_manager->_RB5_ISR
    _interrupt_manager->_RB6_ISR
    _interrupt_manager->_RB7_ISR
    _RB7_ISR_LOW_TT->_LED_Turn_OFF
    _RB7_ISR_HIGH_TT->_LED_Turn_OFF
    _RB6_ISR_LOW_TT->_LED_Turn_ON
    _RB6_ISR_HIGH_TT->_LED_Turn_ON
    _RB5_ISR_LOW_TT->_LED_Turn_OFF
    _RB5_ISR_HIGH_TT->_LED_Turn_OFF
    _LED_Turn_OFF->i2_GPIO_PIN_WRITE_LOGIC
    _RB4_ISR_LOW_TT->_LED_Turn_ON
    _RB4_ISR_HIGH_TT->_LED_Turn_ON
    _LED_Turn_ON->i2_GPIO_PIN_WRITE_LOGIC

Critical Paths under _main in BANK0

    _LED_INITIALIZE->_GPIO_PIN_INITIALIZE
    _ECU_LAYER_INITIALIZE->_LCD_4BIT_INITIALIZE
    _LCD_8BIT_INITIALIZE->_LCD_8BIT_SEND_COMMAND
    _LCD_8BIT_SEND_COMMAND->_lcd_8bit_send_enable_signal
    _LCD_4BIT_INITIALIZE->_LCD_4BIT_SEND_COMMAND
    _LCD_4BIT_SEND_COMMAND->_lcd_send_4bits

Critical Paths under _interrupt_manager in BANK0

    None.

Critical Paths under _main in BANK1

    None.

Critical Paths under _interrupt_manager in BANK1

    None.

Critical Paths under _main in BANK2

    None.

Critical Paths under _interrupt_manager in BANK2

    None.

Critical Paths under _main in BANK3

    None.

Critical Paths under _interrupt_manager in BANK3

    None.

Critical Paths under _main in BANK4

    None.

Critical Paths under _interrupt_manager in BANK4

    None.

Critical Paths under _main in BANK5

    None.

Critical Paths under _interrupt_manager in BANK5

    None.

Critical Paths under _main in BANK6

    None.

Critical Paths under _interrupt_manager in BANK6

    None.

Critical Paths under _main in BANK7

    None.

Critical Paths under _interrupt_manager in BANK7

    None.

Critical Paths under _main in BANK8

    None.

Critical Paths under _interrupt_manager in BANK8

    None.

Critical Paths under _main in BANK9

    None.

Critical Paths under _interrupt_manager in BANK9

    None.

Critical Paths under _main in BANK10

    None.

Critical Paths under _interrupt_manager in BANK10

    None.

Critical Paths under _main in BANK11

    None.

Critical Paths under _interrupt_manager in BANK11

    None.

Critical Paths under _main in BANK12

    None.

Critical Paths under _interrupt_manager in BANK12

    None.

Critical Paths under _main in BANK13

    None.

Critical Paths under _interrupt_manager in BANK13

    None.

Critical Paths under _main in BANK14

    None.

Critical Paths under _interrupt_manager in BANK14

    None.

Critical Paths under _main in BANK15

    None.

Critical Paths under _interrupt_manager in BANK15

    None.

Call Graph Tables:

 ---------------------------------------------------------------------------------
 (Depth) Function   	        Calls       Base Space   Used Autos Params    Refs
 ---------------------------------------------------------------------------------
 (0) _main                                                 0     0      0   63711
              _Application_intialize
        _EXTERNAL_INTERRUPT_RBX_INIT
                     _LED_INITIALIZE
 ---------------------------------------------------------------------------------
 (1) _LED_INITIALIZE                                       4     3      1    7865
                                              3 BANK0      4     3      1
                _GPIO_PIN_INITIALIZE
 ---------------------------------------------------------------------------------
 (1) _EXTERNAL_INTERRUPT_RBX_INIT                          2     1      1    1547
                                             26 COMRAM     1     0      1
                                              0 BANK0      1     1      0
      _GPIO_PIN_DIRECTION_INITIALIZE
 ---------------------------------------------------------------------------------
 (1) _Application_intialize                                0     0      0   54299
               _ECU_LAYER_INITIALIZE
 ---------------------------------------------------------------------------------
 (2) _ECU_LAYER_INITIALIZE                                 1     1      0   54299
                _LCD_4BIT_INITIALIZE
                _LCD_8BIT_INITIALIZE
 ---------------------------------------------------------------------------------
 (3) _LCD_8BIT_INITIALIZE                                  5     4      1   26596
                                              9 BANK0      5     4      1
                _GPIO_PIN_INITIALIZE
               _GPIO_PIN_WRITE_LOGIC
              _LCD_8BIT_SEND_COMMAND
 ---------------------------------------------------------------------------------
 (4) _LCD_8BIT_SEND_COMMAND                                7     5      2   13493
                                              2 BANK0      7     5      2
               _GPIO_PIN_WRITE_LOGIC
        _lcd_8bit_send_enable_signal
 ---------------------------------------------------------------------------------
 (5) _lcd_8bit_send_enable_signal                          2     1      1    5479
                                              0 BANK0      2     1      1
               _GPIO_PIN_WRITE_LOGIC
 ---------------------------------------------------------------------------------
 (3) _LCD_4BIT_INITIALIZE                                  5     4      1   27694
                                             10 BANK0      5     4      1
                _GPIO_PIN_INITIALIZE
              _LCD_4BIT_SEND_COMMAND
 ---------------------------------------------------------------------------------
 (4) _LCD_4BIT_SEND_COMMAND                                3     1      2   19788
                                              7 BANK0      3     1      2
               _GPIO_PIN_WRITE_LOGIC
        _lcd_4bit_send_enable_signal
                     _lcd_send_4bits
 ---------------------------------------------------------------------------------
 (5) _lcd_send_4bits                                       7     5      2    6146
                                              0 BANK0      7     5      2
               _GPIO_PIN_WRITE_LOGIC
 ---------------------------------------------------------------------------------
 (5) _lcd_4bit_send_enable_signal                          2     1      1    5659
                                              0 BANK0      2     1      1
               _GPIO_PIN_WRITE_LOGIC
 ---------------------------------------------------------------------------------
 (2) _GPIO_PIN_INITIALIZE                                  3     2      1    7241
                                              0 BANK0      3     2      1
      _GPIO_PIN_DIRECTION_INITIALIZE
               _GPIO_PIN_WRITE_LOGIC
 ---------------------------------------------------------------------------------
 (3) _GPIO_PIN_WRITE_LOGIC                                 8     6      2    5163
                                             19 COMRAM     8     6      2
 ---------------------------------------------------------------------------------
 (3) _GPIO_PIN_DIRECTION_INITIALIZE                        7     6      1     803
                                             19 COMRAM     7     6      1
 ---------------------------------------------------------------------------------
 Estimated maximum stack depth 5
 ---------------------------------------------------------------------------------
 (Depth) Function   	        Calls       Base Space   Used Autos Params    Refs
 ---------------------------------------------------------------------------------
 (7) _interrupt_manager                                    6     6      0   32344
                                             13 COMRAM     6     6      0
                           _INT0_ISR
                           _INT1_ISR
                           _INT2_ISR
                            _RB4_ISR
                            _RB5_ISR
                            _RB6_ISR
                            _RB7_ISR
 ---------------------------------------------------------------------------------
 (8) _RB7_ISR                                              1     1      0    8086
                                             12 COMRAM     1     1      0
                                NULL *
                    _RB4_ISR_HIGH_TT *
                     _RB4_ISR_LOW_TT *
                    _RB5_ISR_HIGH_TT *
                     _RB5_ISR_LOW_TT *
                    _RB6_ISR_HIGH_TT *
                     _RB6_ISR_LOW_TT *
                    _RB7_ISR_HIGH_TT *
                     _RB7_ISR_LOW_TT *
 ---------------------------------------------------------------------------------
 (8) _RB6_ISR                                              1     1      0    8086
                                             12 COMRAM     1     1      0
                                NULL *
                    _RB4_ISR_HIGH_TT *
                     _RB4_ISR_LOW_TT *
                    _RB5_ISR_HIGH_TT *
                     _RB5_ISR_LOW_TT *
                    _RB6_ISR_HIGH_TT *
                     _RB6_ISR_LOW_TT *
                    _RB7_ISR_HIGH_TT *
                     _RB7_ISR_LOW_TT *
 ---------------------------------------------------------------------------------
 (8) _RB5_ISR                                              1     1      0    8086
                                             12 COMRAM     1     1      0
                                NULL *
                    _RB4_ISR_HIGH_TT *
                     _RB4_ISR_LOW_TT *
                    _RB5_ISR_HIGH_TT *
                     _RB5_ISR_LOW_TT *
                    _RB6_ISR_HIGH_TT *
                     _RB6_ISR_LOW_TT *
                    _RB7_ISR_HIGH_TT *
                     _RB7_ISR_LOW_TT *
 ---------------------------------------------------------------------------------
 (8) _RB4_ISR                                              1     1      0    8086
                                             12 COMRAM     1     1      0
                                NULL *
                    _RB4_ISR_HIGH_TT *
                     _RB4_ISR_LOW_TT *
                    _RB5_ISR_HIGH_TT *
                     _RB5_ISR_LOW_TT *
                    _RB6_ISR_HIGH_TT *
                     _RB6_ISR_LOW_TT *
                    _RB7_ISR_HIGH_TT *
                     _RB7_ISR_LOW_TT *
 ---------------------------------------------------------------------------------
 (9) _RB7_ISR_LOW_TT                                       0     0      0    1003
                       _LED_Turn_OFF
 ---------------------------------------------------------------------------------
 (9) _RB7_ISR_HIGH_TT                                      0     0      0    1003
                       _LED_Turn_OFF
 ---------------------------------------------------------------------------------
 (9) _RB6_ISR_LOW_TT                                       0     0      0    1003
                        _LED_Turn_ON
 ---------------------------------------------------------------------------------
 (9) _RB6_ISR_HIGH_TT                                      0     0      0    1003
                        _LED_Turn_ON
 ---------------------------------------------------------------------------------
 (9) _RB5_ISR_LOW_TT                                       0     0      0    1003
                       _LED_Turn_OFF
 ---------------------------------------------------------------------------------
 (9) _RB5_ISR_HIGH_TT                                      0     0      0    1003
                       _LED_Turn_OFF
 ---------------------------------------------------------------------------------
 (10) _LED_Turn_OFF                                        4     3      1    1003
                                              8 COMRAM     4     3      1
             i2_GPIO_PIN_WRITE_LOGIC
 ---------------------------------------------------------------------------------
 (9) _RB4_ISR_LOW_TT                                       0     0      0    1003
                        _LED_Turn_ON
 ---------------------------------------------------------------------------------
 (9) _RB4_ISR_HIGH_TT                                      0     0      0    1003
                        _LED_Turn_ON
 ---------------------------------------------------------------------------------
 (10) _LED_Turn_ON                                         4     3      1    1003
                                              8 COMRAM     4     3      1
             i2_GPIO_PIN_WRITE_LOGIC
 ---------------------------------------------------------------------------------
 (11) i2_GPIO_PIN_WRITE_LOGIC                              8     6      2     403
                                              0 COMRAM     8     6      2
 ---------------------------------------------------------------------------------
 (9) NULL(Fake)                                            0     0      0       0
 ---------------------------------------------------------------------------------
 (8) _INT2_ISR                                             0     0      0       0
 ---------------------------------------------------------------------------------
 (8) _INT1_ISR                                             0     0      0       0
 ---------------------------------------------------------------------------------
 (8) _INT0_ISR                                             0     0      0       0
 ---------------------------------------------------------------------------------
 Estimated maximum stack depth 11
 ---------------------------------------------------------------------------------

 Call Graph Graphs:

 _main (ROOT)
   _Application_intialize
     _ECU_LAYER_INITIALIZE
       _LCD_4BIT_INITIALIZE
         _GPIO_PIN_INITIALIZE
           _GPIO_PIN_DIRECTION_INITIALIZE
           _GPIO_PIN_WRITE_LOGIC
         _LCD_4BIT_SEND_COMMAND
           _GPIO_PIN_WRITE_LOGIC
           _lcd_4bit_send_enable_signal
             _GPIO_PIN_WRITE_LOGIC
           _lcd_send_4bits
             _GPIO_PIN_WRITE_LOGIC
       _LCD_8BIT_INITIALIZE
         _GPIO_PIN_INITIALIZE
         _GPIO_PIN_WRITE_LOGIC
         _LCD_8BIT_SEND_COMMAND
           _GPIO_PIN_WRITE_LOGIC
           _lcd_8bit_send_enable_signal
             _GPIO_PIN_WRITE_LOGIC
   _EXTERNAL_INTERRUPT_RBX_INIT
     _GPIO_PIN_DIRECTION_INITIALIZE
   _LED_INITIALIZE
     _GPIO_PIN_INITIALIZE

 _interrupt_manager (ROOT)
   _INT0_ISR
   _INT1_ISR
   _INT2_ISR
   _RB4_ISR
     NULL(Fake) *
     _RB4_ISR_HIGH_TT *
       _LED_Turn_ON
         i2_GPIO_PIN_WRITE_LOGIC
     _RB4_ISR_LOW_TT *
       _LED_Turn_ON
     _RB5_ISR_HIGH_TT *
       _LED_Turn_OFF
         i2_GPIO_PIN_WRITE_LOGIC
     _RB5_ISR_LOW_TT *
       _LED_Turn_OFF
     _RB6_ISR_HIGH_TT *
       _LED_Turn_ON
     _RB6_ISR_LOW_TT *
       _LED_Turn_ON
     _RB7_ISR_HIGH_TT *
       _LED_Turn_OFF
     _RB7_ISR_LOW_TT *
       _LED_Turn_OFF
   _RB5_ISR
     NULL(Fake) *
     _RB4_ISR_HIGH_TT *
     _RB4_ISR_LOW_TT *
     _RB5_ISR_HIGH_TT *
     _RB5_ISR_LOW_TT *
     _RB6_ISR_HIGH_TT *
     _RB6_ISR_LOW_TT *
     _RB7_ISR_HIGH_TT *
     _RB7_ISR_LOW_TT *
   _RB6_ISR
     NULL(Fake) *
     _RB4_ISR_HIGH_TT *
     _RB4_ISR_LOW_TT *
     _RB5_ISR_HIGH_TT *
     _RB5_ISR_LOW_TT *
     _RB6_ISR_HIGH_TT *
     _RB6_ISR_LOW_TT *
     _RB7_ISR_HIGH_TT *
     _RB7_ISR_LOW_TT *
   _RB7_ISR
     NULL(Fake) *
     _RB4_ISR_HIGH_TT *
     _RB4_ISR_LOW_TT *
     _RB5_ISR_HIGH_TT *
     _RB5_ISR_LOW_TT *
     _RB6_ISR_HIGH_TT *
     _RB6_ISR_LOW_TT *
     _RB7_ISR_HIGH_TT *
     _RB7_ISR_LOW_TT *

 Address spaces:
Name               Size   Autos  Total    Cost      Usage
BIGRAM             F5F      0       0      43        0.0%
EEDATA             400      0       0       0        0.0%
BITBANK14          100      0       0      32        0.0%
BANK14             100      0       0      33        0.0%
BITBANK13          100      0       0      30        0.0%
BANK13             100      0       0      31        0.0%
BITBANK12          100      0       0      28        0.0%
BANK12             100      0       0      29        0.0%
BITBANK11          100      0       0      26        0.0%
BANK11             100      0       0      27        0.0%
BITBANK10          100      0       0      24        0.0%
BANK10             100      0       0      25        0.0%
BITBANK9           100      0       0      22        0.0%
BANK9              100      0       0      23        0.0%
BITBANK8           100      0       0      20        0.0%
BANK8              100      0       0      21        0.0%
BITBANK7           100      0       0      18        0.0%
BANK7              100      0       0      19        0.0%
BITBANK6           100      0       0      16        0.0%
BANK6              100      0       0      17        0.0%
BITBANK5           100      0       0      14        0.0%
BANK5              100      0       0      15        0.0%
BITBANK4           100      0       0      12        0.0%
BANK4              100      0       0      13        0.0%
BITBANK3           100      0       0      10        0.0%
BANK3              100      0       0      11        0.0%
BITBANK2           100      0       0       8        0.0%
BANK2              100      0       0       9        0.0%
BITBANK1           100      0       0       6        0.0%
BANK1              100      0       0       7        0.0%
BITBANK0            A0      0       0       4        0.0%
BANK0               A0      F      4B       5       46.9%
BITBANK15           60      0       0      34        0.0%
BANK15              60      0       0      35        0.0%
BITCOMRAM           5E      0       0       0        0.0%
COMRAM              5E     1B      4B       1       79.8%
BITBIGSFRhll        59      0       0      37        0.0%
BITBIGSFRlll        1D      0       0      41        0.0%
BITBIGSFRhh          D      0       0      36        0.0%
BITBIGSFRlhh         4      0       0      38        0.0%
BITBIGSFRlhl         4      0       0      39        0.0%
BITBIGSFRllh         2      0       0      40        0.0%
BIGSFR               0      0       0     200        0.0%
BITSFR               0      0       0     200        0.0%
SFR                  0      0       0     200        0.0%
STACK                0      0       0       2        0.0%
NULL                 0      0       0       0        0.0%
ABS                  0      0      96      42        0.0%
DATA                 0      0      96       3        0.0%
CODE                 0      0       0       0        0.0%


Microchip Technology PIC18 Macro Assembler V2.46 build 20240104201356 
Symbol Table                                                                                   Mon Nov 04 01:00:44 2024

                         ?_lcd_send_4bits 009C                                        l70 1D14  
                                      l65 1A1A                                        l75 1CD0  
                  ??_GPIO_PIN_WRITE_LOGIC 0037                 LCD_8BIT_INITIALIZE@Retval 00A9  
                                     l111 1B6E                                       l106 1264  
                                     l162 1734                                       l411 1596  
                                     l155 1148                                       l432 1C36  
                                     l344 1D66                                       l530 1392  
                                     l283 1948                                       l533 13AC  
                                     l534 1482                                       l535 13D2  
                                     l287 19A4                                       l392 1376  
                                     l536 13F8                                       l537 141E  
                                     l539 1486                                       l812 1DDA  
                                     l806 1BCC                                       l807 1BCC  
                                     _Ret 004B       __end_of_lcd_4bit_send_enable_signal 1D16  
             _lcd_4bit_send_enable_signal 1CD2                                       tosl 0FFD  
                                     wreg 0FE8               lcd_send_4bits@_data_command 009D  
                          _RB5_ISR_LOW_TT 1D82                           __end_of_RB4_ISR 192E  
                         __end_of_RB5_ISR 18B0                           __end_of_RB6_ISR 1832  
                         __end_of_RB7_ISR 17B4         lcd_8bit_send_enable_signal@Retval 009D  
                                    l4100 1266                                      l4110 12F8  
                                    l4102 1276                                      l4120 1374  
                                    l4104 1296                                      l4200 16C2  
                                    l4106 129E                                      l4210 1704  
                                    l4202 16CE                                      l4108 12F0  
                                    l4140 1A18                                      l4124 19A6  
                                    l4212 170A                                      l4118 1348  
                                    l4150 1CF8                                      l4134 19C8  
                                    l4126 19B8                                      l4214 1726  
                                    l4310 107E                                      l4080 1512  
                                    l4072 1488                                      l4152 1D00  
                                    l4144 1CD2                                      l4136 19F8  
                                    l4128 19C0                                      l4160 1CA0  
                                    l4208 16D8                                      l4216 1732  
                                    l4312 1092                                      l4304 1050  
                                    l4320 1146                                      l5122 157E  
                                    l4082 151A                                      l4090 156A  
                                    l4074 1498                                      l4154 1D12  
                                    l4146 1CE4                                      l4138 19FC  
                                    l4250 115C                                      l4162 1CA8  
                                    l4314 109E                                      l4306 105C  
                                    l4092 1594                                      l4076 14B8  
                                    l4180 1C2E                                      l4172 1BD4  
                                    l4148 1CEC                                      l4260 1184  
                                    l4252 1164                                      l4164 1CB4  
                                    l4316 10C0                                      l4308 1062  
                                    l4500 194C                                      l4078 14C0  
                                    l4182 1C34                                      l4174 1BE6  
                                    l4190 1B22                                      l4270 11D4  
                                    l4262 1190                                      l4254 117C  
                                    l4166 1CBC                                      l4158 1C8E  
                                    l4318 10CE                                      l4502 1982  
                                    l4176 1C06                                      l4192 1B6C  
                                    l4280 1226                                      l4272 11F6  
                                    l4264 1196                                      l4248 114A  
                                    l4168 1CCE                                      l4600 1DD6  
                                    l4520 13C0                                      l4512 1378  
                                    l4504 1984                                      l5080 1B70  
                                    l4178 1C0E                                      l4186 1B08  
                                    l4282 1234                                      l4274 11FC  
                                    l4266 11B2                                      l4450 1D52  
                                    l4530 1420                                      l4522 13D4  
                                    l4514 1388                                      l4506 1996  
                                    l4188 1B1A                                      l4284 1242  
                                    l4276 120A                                      l4268 11C6  
                                    l4196 16A8                                      l4292 1016  
                                    l4452 1D52                                      l4532 1432  
                                    l4524 13E6                                      l4516 139A  
                                    l4540 1484                                      l4508 19A2  
                                    l4286 1250                                      l4278 1218  
                                    l4198 16BA                                      l4294 1028  
                                    l4454 1D5C                                      l4534 1444  
                                    l4526 13FA                                      l4518 13AE  
                                    l4288 1262                                      l4296 1030  
                                    l4528 140C                                      l4298 1048  
                                    l4538 144C                                      l4496 192E  
                                    l4498 1940                                      STR_1 1011  
                                    _LATA 0F89                                      _LATB 0F8A  
                                    _LATC 0F8B                                      _LATD 0F8C  
                                    _LATE 0F8D                                      u4110 1388  
                                    u4111 1384                                      u4105 1992  
                                    u4107 1996                                      u4090 1940  
                                    u4091 193C                                      u3700 14B8  
                                    u3701 14B4                                      u5207 10B4  
                                    u3800 1A18                                      u3801 1A14  
                                    u5217 10D0                                      u3730 1276  
                                    u3714 14DE                                      u3810 1CE4  
                                    u3731 1272                                      u3715 14DA  
                                    u3811 1CE0                                      u5227 1CB6  
                                    u3740 1296                                      u3724 1538  
                                    u3820 1CA0                                      u3741 1292  
                                    u3725 1534                                      u5237 11BA  
                                    u3821 1C9C                                      u3830 1BE6  
                                    u3831 1BE2                                      u5247 11DC  
                                    u3840 1C06                                      u3841 1C02  
                                    u5257 11F8                                      u3770 135E  
                                    u3754 12BC                                      u3690 1498  
                                    u3850 1B1A                                      u3930 115C  
                                    u3771 1358                                      u3755 12B8  
                                    u3691 1494                                      u5267 1CFA  
                                    u3851 1B16                                      u3931 1158  
                                    u3764 1316                                      u3780 19B8  
                                    u3940 11B2                                      u3860 16BA  
                                    u3765 1312                                      u3781 19B4  
                                    u3941 11AE                                      u3861 16B6  
                                    u5197 1086                                      u3950 1028  
                                    u3951 1024                                      u3776 1360  
                                    u3880 1726                                      u3960 107E  
                                    u3881 1722                                      u3961 107A  
                                    u3794 19E2                                      u3874 16F2  
                                    u3795 19DE                                      u3875 16EE  
                     LED_INITIALIZE@F3776 0021             ??_lcd_4bit_send_enable_signal 003D  
                            ?_LED_Turn_ON 002A                                      _lcd1 0096  
                                    _lcd2 0074                                      _led1 004A  
                                    _led2 0049                                      _led3 0048  
                                    _led4 0047                           _RB5_ISR_HIGH_TT 1DB2  
                                    _main 1B70                                      fsr2h 0FDA  
                                    indf2 0FDF                                      fsr1l 0FE1  
                                    fsr2l 0FD9                                      btemp 004C  
                  __end_of_RB4_ISR_LOW_TT 1D9A                                      prodh 0FF4  
                                    prodl 0FF3                                      start 02BE  
              _RB5_interrupt_handler_HIGH 0009                            LED_Turn_ON@led 002A  
                           _KEYPAD_VALUES 1001                            _RB6_ISR_LOW_TT 1D76  
                            ___param_bank 0000                    ?_LCD_4BIT_SEND_COMMAND 00A3  
                        __end_of_INT0_ISR 1DE8                    _int1_interrupt_handler 0013  
                        __end_of_INT1_ISR 1DE4                          __end_of_INT2_ISR 1DE0  
                                   ?_main 0022                                     i2l301 1A90  
                                   _RB4__ 0090                                     _RB5__ 008A  
                                   i2l411 16A6                                     _RB6__ 0084  
                                   _RB7__ 007E                                     i2l290 1AAA  
                                   i2l523 1DE2                                     i2l294 1B06  
                                   i2l519 1DE6                                     i2l527 1DDE  
                                   i2l297 1A34                                     i2l554 192C  
                                   i2l730 0042                                     i2l564 18AE  
                                   i2l740 014E                                     i2l732 0062  
                                   i2l821 1D98                                     i2l830 1DB0  
                                   i2l574 1830                                     i2l742 0192  
                                   i2l734 0082                                     i2l751 02A2  
                                   i2l824 1DBC                                     i2l584 17B2  
                                   i2l744 01D6                                     i2l736 00C6  
                                   i2l833 1D80                                     i2l818 1DC8  
                                   i2l746 021A                                     i2l738 010A  
                                   i2l827 1D8C                                     i2l836 1DD4  
                                   i2l748 025E                                     i2l839 1DA4  
                  __end_of_RB5_ISR_LOW_TT 1D8E                                     _PORTA 0F80  
                                   _PORTB 0F81                                     _PORTC 0F82  
                                   _PORTD 0F83                                     _PORTE 0F84  
                                   _TRISA 0F92                                     _TRISB 0F93  
                                   _TRISC 0F94                                     _TRISD 0F95  
                                   _TRISE 0F96                             ?_LED_Turn_OFF 002A  
             __end_of_LCD_4BIT_INITIALIZE 1266                            _RB7_ISR_LOW_TT 1D9A  
                 __end_of_RB4_ISR_HIGH_TT 1DCA                    ?_Application_intialize 0022  
                                   pclath 0FFA                                     pclatu 0FFB  
                                   tablat 0FF5                           LED_Turn_OFF@led 002A  
                                   ttemp5 004D                                     ttemp6 0050  
                                   ttemp7 0054                                     status 0FD8  
                                   wtemp8 004D                           _RB6_ISR_HIGH_TT 1DA6  
            ?_EXTERNAL_INTERRUPT_RBX_INIT 003C                           ?_RB4_ISR_LOW_TT 0022  
                  __end_of_RB6_ISR_LOW_TT 1D82                      LED_INITIALIZE@Retval 00A1  
                         __initialization 1C38                              __end_of_main 1BD4  
            LCD_4BIT_SEND_COMMAND@command 00A4              __end_of_ECU_LAYER_INITIALIZE 1D68  
                                  ??_main 003D                             __activetblptr 0003  
                          ??_LED_Turn_OFF 002B                                 ??_RB4_ISR 002E  
                         ?_RB5_ISR_LOW_TT 0022                                 ??_RB5_ISR 002E  
                  __end_of_RB7_ISR_LOW_TT 1DA6                                 ??_RB6_ISR 002E  
                               ??_RB7_ISR 002E                   __end_of_RB5_ISR_HIGH_TT 1DBE  
                                  i2l2002 1DE0                                    i2l2006 1DDC  
                                  i2l5000 0090                                    i2l5010 00D4  
                                  i2l5002 009E                                    i2l4220 1598  
                                  i2l5020 0118                                    i2l5012 00E2  
                                  i2l5004 00AC                                    i2l4230 162A  
                                  i2l4222 15A8                                    i2l5030 015C  
                                  i2l5022 0126                                    i2l5014 00F0  
                                  i2l5006 00BC                                    i2l4240 16A4  
                                  i2l4224 15C8                                    i2l5040 01A0  
                                  i2l5032 016A                                    i2l5024 0134  
                                  i2l5016 0100                                    i2l5008 00C0  
                                  i2l4226 15D0                                    i2l4330 1AE4  
                                  i2l5050 01E4                                    i2l5042 01AE  
                                  i2l5034 0178                                    i2l5026 0144  
                                  i2l5018 0104                                    i2l5124 168E  
                                  i2l4228 1622                                    i2l4332 1AE6  
                                  i2l4324 1A92                                    i2l4340 1A1C  
                                  i2l5060 0228                                    i2l5052 01F2  
                                  i2l5044 01BC                                    i2l5036 0188  
                                  i2l5028 0148                                    i2l4238 167A  
                                  i2l4334 1AF6                                    i2l4326 1AA2  
                                  i2l4350 1A80                                    i2l4342 1A2C  
                                  i2l5070 026C                                    i2l5062 0236  
                                  i2l5054 0200                                    i2l5046 01CC  
                                  i2l5038 018C                                    i2l4328 1AAE  
                                  i2l4336 1B04                                    i2l4344 1A38  
                                  i2l4352 1A8E                                    i2l5072 027A  
                                  i2l5064 0244                                    i2l5056 0210  
                                  i2l5048 01D0                                    i2l4346 1A6E  
                                  i2l5074 0288                                    i2l5066 0254  
                                  i2l5058 0214                                    i2l4348 1A70  
                                  i2l4460 1DB2                                    i2l5076 0298  
                                  i2l5068 0258                                    i2l4470 1D9A  
                                  i2l4462 1D82                                    i2l4550 18D6  
                                  i2l5078 029C                                    i2l4456 1DBE  
                                  i2l4464 1DA6                                    i2l4552 18F2  
                                  i2l4544 18B2                                    i2l4560 1836  
                                  i2l4458 1D8E                                    i2l4466 1D76  
                                  i2l4554 1902                                    i2l4546 18B4  
                                  i2l4570 1896                                    i2l4562 1846  
                                  i2l4468 1DCA                                    i2l4556 1914  
                                  i2l4548 18C4                                    i2l4564 1858  
                                  i2l4580 17F6                                    i2l4572 17B6  
                                  i2l1998 1DE4                                    i2l4566 1874  
                                  i2l4558 1834                                    i2l4582 1806  
                                  i2l4574 17B8                                    i2l4590 174A  
                                  i2l4568 1884                                    i2l4584 1818  
                                  i2l4576 17C8                                    i2l4592 175C  
                                  i2l4578 17DA                                    i2l4594 1778  
                                  i2l4586 1738                                    i2l4596 1788  
                                  i2l4588 173A                                    i2l4598 179A  
                                  i2l4990 003E                                    i2l4992 0050  
                                  i2l4994 005E                                    i2l4986 0022  
                                  i2l4996 0070                                    i2l4988 0030  
                                  i2l4998 007E               __end_of_LCD_8BIT_INITIALIZE 114A  
                         _RB7_ISR_HIGH_TT 1DCA                  ??i2_GPIO_PIN_WRITE_LOGIC 0024  
                         ?_RB6_ISR_LOW_TT 0022                 _RB4_interrupt_handler_LOW 000F  
           ??_EXTERNAL_INTERRUPT_RBX_INIT 003D                 _RB7_interrupt_handler_LOW 0003  
                                  clear_0 1C7E                                    isa$std 0001  
                  LCD_4BIT_INITIALIZE@lcd 00A6                          LED_Turn_ON@F3781 0020  
                            __pdataCOMRAM 003D                     LED_INITIALIZE@PIN_OBJ 00A2  
                         ?_RB7_ISR_LOW_TT 0022                              __mediumconst 0000  
                                  tblptrh 0FF7                                    tblptrl 0FF6  
                                  tblptru 0FF8                          ?_RB4_ISR_HIGH_TT 0022  
                 __end_of_RB6_ISR_HIGH_TT 1DB2                  LCD_4BIT_SEND_COMMAND@lcd 00A3  
             i2GPIO_PIN_WRITE_LOGIC@LOGIC 0023                          ??_LED_INITIALIZE 00A0  
                              __accesstop 0060                   __end_of__initialization 1C84  
                               ?_INT0_ISR 0022                                 ?_INT1_ISR 0022  
                               ?_INT2_ISR 0022                             ___rparam_used 0001  
                        ??_lcd_send_4bits 009E               LCD_4BIT_SEND_COMMAND@Retval 00A5  
                       LED_INITIALIZE@led 009F                            __pcstackCOMRAM 0022  
                            __pidataBANK0 1D16                       _GPIO_PIN_INITIALIZE 1BD4  
                   _LCD_8BIT_SEND_COMMAND 16A8            ?_GPIO_PIN_DIRECTION_INITIALIZE 0035  
                        ?_RB5_ISR_HIGH_TT 0022                      ?_GPIO_PIN_INITIALIZE 009C  
                    LCD_4BIT_INITIALIZE@i 00A8                   __end_of_RB7_ISR_HIGH_TT 1DD6  
                    _ECU_LAYER_INITIALIZE 1D52                                ??_INT0_ISR 0022  
                              ??_INT1_ISR 0022                                ??_INT2_ISR 0022  
                              __pnvCOMRAM 004B                   ??_LCD_4BIT_SEND_COMMAND 003D  
                    __end_of_LED_Turn_OFF 1A92         lcd_4bit_send_enable_signal@Retval 009D  
               LCD_4BIT_INITIALIZE@Retval 00AA                                   _RB4_ISR 18B0  
                                 _RB5_ISR 1832                                   _RB6_ISR 17B4  
                                 _RB7_ISR 1736                                   _LAT_REG 003D  
                 ??_Application_intialize 003D                     ??_GPIO_PIN_INITIALIZE 009D  
     __end_of_lcd_8bit_send_enable_signal 1CD2               _lcd_8bit_send_enable_signal 1C8E  
                        ?_RB6_ISR_HIGH_TT 0022                          ??_RB4_ISR_LOW_TT 002E  
                   ?_ECU_LAYER_INITIALIZE 0022                       RELAY_TURN_OFF@F3786 001B  
          lcd_8bit_send_enable_signal@lcd 009C             ??_lcd_8bit_send_enable_signal 003D  
              _RB4_interrupt_handler_HIGH 000D                    LCD_8BIT_SEND_COMMAND@i 00A3  
                                 __Hparam 0000                                   __Lparam 0000  
              _RB7_interrupt_handler_HIGH 0001                    ?_LCD_8BIT_SEND_COMMAND 009E  
                            __psmallconst 1000                          ??_RB5_ISR_LOW_TT 002E  
                  _int2_interrupt_handler 0011                                   __pcinit 1C38  
                                 __ramtop 1000                                   __ptext0 1B70  
                                 __ptext1 192E                                   __ptext2 1378  
                                 __ptext3 1DD6                                   __ptext4 1D52  
                                 __ptext5 1016                                   __ptext6 16A8  
                                 __ptext7 1C8E                                   __ptext8 114A  
                                 __ptext9 1B08                    i2_GPIO_PIN_WRITE_LOGIC 1598  
                       LED_Turn_OFF@F3786 001F                          ?_RB7_ISR_HIGH_TT 0022  
                    end_of_initialization 1C84                         lcd_send_4bits@lcd 009C  
                        ??_RB6_ISR_LOW_TT 002E                                   postdec1 0FE5  
                                 postdec2 0FDD                                   postinc0 0FEE  
                                 postinc2 0FDE                         LED_Turn_ON@Retval 002C  
                        ??_RB7_ISR_LOW_TT 002E                                 _PORTBbits 0F81  
            i2GPIO_PIN_WRITE_LOGIC@Retval 0029              LCD_8BIT_SEND_COMMAND@command 009F  
                  ??_ECU_LAYER_INITIALIZE 003D            GPIO_PIN_INITIALIZE@_PIN_CONFIG 009C  
               _RB5_interrupt_handler_LOW 000B                                RB4_ISR@rb4 002E  
                              RB5_ISR@rb5 002E                      lcd_send_4bits@Retval 00A0  
                              RB6_ISR@rb6 002E                                RB7_ISR@rb7 002E  
                           __pidataCOMRAM 1D68                    LCD_8BIT_INITIALIZE@lcd 00A5  
                     start_initialization 1C38              ?_lcd_4bit_send_enable_signal 009C  
                            _LED_Turn_OFF 1A1C                  LCD_8BIT_SEND_COMMAND@lcd 009E  
         ??_GPIO_PIN_DIRECTION_INITIALIZE 0036                GPIO_PIN_WRITE_LOGIC@Retval 003C  
                           ??_LED_Turn_ON 002B       __end_of_EXTERNAL_INTERRUPT_RBX_INIT 1488  
             _EXTERNAL_INTERRUPT_RBX_INIT 1378                     __end_of_KEYPAD_VALUES 1011  
           __end_of_LCD_4BIT_SEND_COMMAND 1B70                           lcd_send_4bits@i 00A1  
                             __pdataBANK0 0060            EXTERNAL_INTERRUPT_RBX_INIT@RBX 003C  
                                ?_RB4_ISR 0022                                  ?_RB5_ISR 0022  
                                ?_RB6_ISR 0022                                  ?_RB7_ISR 0022  
                             __pbssCOMRAM 0001                             __pcstackBANK0 009C  
                    LCD_8BIT_INITIALIZE@i 00A7             __end_of_Application_intialize 1DDC  
            __end_of_GPIO_PIN_WRITE_LOGIC 1598                   ??_LCD_8BIT_SEND_COMMAND 00A0  
                     __end_of_LED_Turn_ON 1B08                                 __pintcode 0008  
GPIO_PIN_DIRECTION_INITIALIZE@_PIN_CONFIG 0035                   ?i2_GPIO_PIN_WRITE_LOGIC 0022  
                     _LCD_4BIT_INITIALIZE 114A               __end_of_GPIO_PIN_INITIALIZE 1C38  
                             __smallconst 1000                         _interrupt_manager 0008  
                      RELAY_TURN_ON@F3780 001C                        ?_interrupt_manager 0022  
                    ?_LCD_4BIT_INITIALIZE 00A6                       ??_interrupt_manager 002F  
                                _INT0_ISR 1DE4                                  _INT1_ISR 1DE0  
                                _INT2_ISR 1DDC                                  _IOCBbits 0F7D  
         GPIO_PIN_WRITE_LOGIC@_PIN_CONFIG 0035         i2GPIO_PIN_WRITE_LOGIC@_PIN_CONFIG 0022  
   __end_of_GPIO_PIN_DIRECTION_INITIALIZE 1378             _GPIO_PIN_DIRECTION_INITIALIZE 1266  
                                i2u400_45 1A7E                                  i2u400_47 1A80  
                                i2u412_40 18C4                                  i2u500_40 016A  
                                i2u412_41 18C0                                  i2u500_41 0166  
                                i2u413_40 18D6                                  i2u421_40 1884  
                                i2u420_48 185E                                  i2u501_40 0178  
                                i2u413_41 18D2                                  i2u421_41 1880  
                                i2u420_49 1870                                  i2u501_41 0174  
              _RB6_interrupt_handler_HIGH 0005                                  i2u422_40 1896  
                                i2u430_40 174A                                  i2u510_40 0210  
                                i2u502_40 0188                                  i2u422_41 1892  
                                i2u430_41 1746                                  i2u510_41 020C  
                                i2u502_41 0184                                  i2u415_40 1902  
                                i2u414_48 18DC                                  i2u431_40 175C  
                                i2u511_40 0228                                  i2u503_40 01A0  
                                i2u415_41 18FE                                  i2u414_49 18EE  
                                i2u431_41 1758                                  i2u511_41 0224  
                                i2u503_41 019C                                  i2u416_40 1914  
                                i2u423_48 189C                                  i2u424_40 17C8  
                                i2u512_40 0236                                  i2u504_40 01AE  
                                i2u416_41 1910                                  i2u423_49 18AE  
                                i2u424_41 17C4                                  i2u512_41 0232  
                                i2u504_41 01AA                                  i2u425_40 17DA  
                                i2u433_40 1788                                  i2u432_48 1762  
                                i2u513_40 0244                                  i2u505_40 01BC  
                                i2u425_41 17D6                                  i2u433_41 1784  
                                i2u432_49 1774                                  i2u513_41 0240  
                                i2u505_41 01B8                                  i2u417_48 191A  
                                i2u418_40 1846                                  i2u434_40 179A  
                                i2u514_40 0254                                  i2u506_40 01CC  
                                i2u417_49 192C                                  i2u418_41 1842  
                                i2u434_41 1796                                  i2u514_41 0250  
                                i2u506_41 01C8                                  i2u419_40 1858  
                                i2u427_40 1806                                  i2u426_48 17E0  
                                i2u515_40 026C                                  i2u507_40 01E4  
                                i2u419_41 1854                                  i2u427_41 1802  
                                i2u426_49 17F2                                  i2u515_41 0268  
                                i2u507_41 01E0                                  i2u428_40 1818  
                                i2u435_48 17A0                                  i2u516_40 027A  
                                i2u508_40 01F2                                  i2u428_41 1814  
                                i2u435_49 17B2                                  i2u516_41 0276  
                                i2u508_41 01EE                                  i2u517_40 0288  
                                i2u509_40 0200                                  i2u517_41 0284  
                                i2u509_41 01FC                                  i2u390_40 15C8  
                                i2u429_48 181E                                  i2u518_40 0298  
                                i2u390_41 15C4                                  i2u429_49 1830  
                                i2u518_41 0294                                  i2u391_44 15EE  
                                i2u391_45 15EA                                  i2u392_44 1648  
                                i2u392_45 1644                                  i2u481_40 0030  
                                i2u481_41 002C                                  i2u490_40 00BC  
                                i2u482_40 003E                                  i2u490_41 00B8  
                                i2u482_41 003A                                  i2u491_40 00D4  
                                i2u483_40 0050                                  i2u491_41 00D0  
                                i2u483_41 004C                                  i2u492_40 00E2  
                                i2u484_40 005E                                  i2u492_41 00DE  
                                i2u484_41 005A                                  i2u389_40 15A8  
                                i2u397_40 1AA2                                  i2u493_40 00F0  
                                i2u485_40 0070                                  i2u389_41 15A4  
                                i2u397_41 1A9E                                  i2u493_41 00EC  
                                i2u485_41 006C                                  i2u494_40 0100  
                                i2u486_40 007E                                  i2u494_41 00FC  
                                i2u486_41 007A                                  i2u398_45 1AF4  
                                i2u398_47 1AF6                                  i2u399_40 1A2C  
                                i2u495_40 0118                                  i2u487_40 0090  
                                i2u399_41 1A28                                  i2u495_41 0114  
                                i2u487_41 008C                                  i2u496_40 0126  
                                i2u488_40 009E                                  i2u496_41 0122  
                                i2u488_41 009A                                  i2u497_40 0134  
                                i2u489_40 00AC                                  i2u497_41 0130  
                                i2u489_41 00A8                                  i2u498_40 0144  
                                i2u498_41 0140                                  i2u499_40 015C  
                                i2u499_41 0158            __end_ofi2_GPIO_PIN_WRITE_LOGIC 16A8  
                       ??_RB4_ISR_HIGH_TT 002E                                  _PORT_REG 0060  
               GPIO_PIN_INITIALIZE@Retval 009E                    _int0_interrupt_handler 0015  
                                _TRIS_REG 006A                 __end_of_interrupt_manager 02BE  
                     _LCD_8BIT_INITIALIZE 1016                       LED_Turn_OFF@PIN_OBJ 002D  
                             _INTCON2bits 0FF1                               _INTCON3bits 0FF0  
                               copy_data0 1C4C                                 copy_data1 1C6C  
               GPIO_PIN_WRITE_LOGIC@LOGIC 0036                     ??_LCD_4BIT_INITIALIZE 00A7  
                             _LED_Turn_ON 1A92                                  __Hrparam 0000  
                    ?_LCD_8BIT_INITIALIZE 00A5                                  __Lrparam 0000  
                       ??_RB5_ISR_HIGH_TT 002E                                  _rb4_flag 001A  
                                _rb5_flag 0019                      _GPIO_PIN_WRITE_LOGIC 1488  
                                _rb6_flag 0018                                  _rb7_flag 0017  
                                __ptext10 19A6                                  __ptext11 1CD2  
                                __ptext20 1D76                                  __ptext12 1BD4  
                                __ptext21 1D82                                  __ptext13 1488  
                                __ptext30 1598                                  __ptext22 1D8E  
                                __ptext14 1266                                  __ptext31 1DDC  
                                __ptext23 1D9A                                  __ptext32 1DE0  
                                __ptext24 1DA6                                  __ptext16 1736  
                                __ptext33 1DE4                                  __ptext25 1DB2  
                                __ptext17 17B4                                  __ptext26 1DBE  
                                __ptext18 1832                                  __ptext27 1DCA  
                                __ptext19 18B0                                  __ptext28 1A1C  
                                __ptext29 1A92       GPIO_PIN_DIRECTION_INITIALIZE@Retval 003B  
                   ??_LCD_8BIT_INITIALIZE 00A6                 _RB6_interrupt_handler_LOW 0007  
                                isa$xinst 0000                            _LED_INITIALIZE 192E  
                                int$flags 004C                         ??_RB6_ISR_HIGH_TT 002E  
                         LED_TOGGLE@F3791 001E                            _lcd_send_4bits 19A6  
                   ?_GPIO_PIN_WRITE_LOGIC 0035                                _INTCONbits 0FF2  
                      LED_Turn_OFF@Retval 002C              ?_lcd_8bit_send_enable_signal 009C  
                                intlevel2 0000            lcd_4bit_send_enable_signal@lcd 009C  
                      LED_Turn_ON@PIN_OBJ 002D         EXTERNAL_INTERRUPT_RBX_INIT@Retval 009C  
                  __end_of_LED_INITIALIZE 19A6             __end_of_LCD_8BIT_SEND_COMMAND 1736  
                  __end_of_lcd_send_4bits 1A1C                         ??_RB7_ISR_HIGH_TT 002E  
                   _LCD_4BIT_SEND_COMMAND 1B08               LCD_8BIT_SEND_COMMAND@Retval 00A2  
                   _Application_intialize 1DD6                           _RB4_ISR_HIGH_TT 1DBE  
                         ?_LED_INITIALIZE 009F                            _RB4_ISR_LOW_TT 1D8E  
                   RELAY_INITIALIZE@F3774 001D  
